(dp0
S'b'
p1
(dp2
S'b4'
p3
(dp4
S'standard'
p5
(lp6
(lp7
F1022.0
aF787.0
aa(lp8
F1111.0
aF712.0
aa(lp9
F1107.0
aF782.0
aa(lp10
F1018.0
aF864.0
aasS'calibration'
p11
(lp12
(lp13
F1091.0
aF776.0
aa(lp14
F1063.0
aF807.0
aa(lp15
F1052.0
aF784.0
aassS'b5'
p16
(dp17
g5
(lp18
(lp19
F1210.0
aF725.0
aa(lp20
F1173.0
aF684.0
aa(lp21
F1169.0
aF728.0
aa(lp22
F1171.0
aF746.0
aasg11
(lp23
(lp24
F1093.0
aF782.0
aa(lp25
F1072.0
aF805.0
aa(lp26
F1045.0
aF782.0
aassS'b6'
p27
(dp28
g5
(lp29
(lp30
F1317.0
aF563.0
aa(lp31
F1365.0
aF512.0
aa(lp32
F1345.0
aF576.0
aa(lp33
F1299.0
aF631.0
aasg11
(lp34
(lp35
F1304.0
aF622.0
aa(lp36
F1336.0
aF567.0
aa(lp37
F1326.0
aF618.0
aassS'b7'
p38
(dp39
g5
(lp40
(lp41
F1022.0
aF967.0
aa(lp42
F1024.0
aF920.0
aa(lp43
F1109.0
aF844.0
aa(lp44
F1096.0
aF897.0
aasg11
(lp45
(lp46
F1077.0
aF885.0
aa(lp47
F1080.0
aF906.0
aa(lp48
F1045.0
aF910.0
aassS'b1'
p49
(dp50
g5
(lp51
(lp52
F1031.0
aF629.0
aa(lp53
F1125.0
aF551.0
aa(lp54
F1123.0
aF634.0
aa(lp55
F1024.0
aF716.0
aasg11
(lp56
(lp57
F1127.0
aF640.0
aa(lp58
F1130.0
aF593.0
aa(lp59
F1093.0
aF675.0
aassS'b2'
p60
(dp61
g5
(lp62
(lp63
F1207.0
aF504.0
aa(lp64
F1290.0
aF435.0
aa(lp65
F1272.0
aF512.0
aa(lp66
F1198.0
aF581.0
aasg11
(lp67
(lp68
F1232.0
aF570.0
aa(lp69
F1269.0
aF517.0
aa(lp70
F1208.0
aF567.0
aassS'b3'
p71
(dp72
g5
(lp73
(lp74
F1349.0
aF398.0
aa(lp75
F1409.0
aF348.0
aa(lp76
F1388.0
aF424.0
aa(lp77
F1331.0
aF474.0
aasg11
(lp78
(lp79
F1331.0
aF492.0
aa(lp80
F1376.0
aF460.0
aa(lp81
F1344.0
aF449.0
aassS'b8'
p82
(dp83
g5
(lp84
(lp85
F1159.0
aF808.0
aa(lp86
F1232.0
aF744.0
aa(lp87
F1214.0
aF792.0
aa(lp88
F1155.0
aF846.0
aasg11
(lp89
(lp90
F1194.0
aF778.0
aa(lp91
F1169.0
aF803.0
aa(lp92
F1194.0
aF803.0
aa(lp93
F1212.0
aF780.0
aassS'b9'
p94
(dp95
g5
(lp96
(lp97
F1301.0
aF680.0
aa(lp98
F1338.0
aF643.0
aa(lp99
F1329.0
aF680.0
aasg11
(lp100
(lp101
F1299.0
aF680.0
aa(lp102
F1322.0
aF688.0
aa(lp103
F1329.0
aF654.0
aasssS'd'
p104
(dp105
S'd8'
p106
(dp107
g5
(lp108
(lp109
F1100.0
aF160.0
aa(lp110
F1169.0
aF200.0
aa(lp111
F1112.0
aF236.0
aa(lp112
F1045.0
aF195.0
aasg11
(lp113
(lp114
F1086.0
aF215.0
aa(lp115
F1088.0
aF190.0
aa(lp116
F1123.0
aF211.0
aassS'd9'
p117
(dp118
g5
(lp119
(lp120
F1011.0
aF129.0
aa(lp121
F1015.0
aF156.0
aa(lp122
F1040.0
aF145.0
aasg11
(lp123
(lp124
F1006.0
aF124.0
aa(lp125
F1015.0
aF168.0
aa(lp126
F1038.0
aF142.0
aassS'd6'
p127
(dp128
g5
(lp129
(lp130
F864.0
aF176.0
aa(lp131
F933.0
aF202.0
aa(lp132
F840.0
aF241.0
aa(lp133
F782.0
aF206.0
aasg11
(lp134
(lp135
F910.0
aF213.0
aa(lp136
F912.0
aF183.0
aa(lp137
F872.0
aF213.0
aassS'd7'
p138
(dp139
g5
(lp140
(lp141
F1237.0
aF222.0
aa(lp142
F1326.0
aF259.0
aa(lp143
F1267.0
aF302.0
aa(lp144
F1166.0
aF263.0
aasg11
(lp145
(lp146
F1205.0
aF266.0
aa(lp147
F1237.0
aF243.0
aa(lp148
F1244.0
aF293.0
aassS'd4'
p149
(dp150
g5
(lp151
(lp152
F1136.0
aF309.0
aa(lp153
F1210.0
aF344.0
aa(lp154
F1141.0
aF405.0
aa(lp155
F1063.0
aF359.0
aasg11
(lp156
(lp157
F1098.0
aF316.0
aa(lp158
F1096.0
aF350.0
aa(lp159
F1139.0
aF305.0
aassS'd5'
p160
(dp161
g5
(lp162
(lp163
F1018.0
aF241.0
aa(lp164
F1031.0
aF296.0
aa(lp165
F1057.0
aF277.0
aa(lp166
F1056.0
aF254.0
aasg11
(lp167
(lp168
F1098.0
aF312.0
aa(lp169
F1098.0
aF346.0
aa(lp170
F1146.0
aF305.0
aassS'd2'
p171
(dp172
g5
(lp173
(lp174
F833.0
aF309.0
aa(lp175
F901.0
aF341.0
aa(lp176
F830.0
aF382.0
aa(lp177
F755.0
aF350.0
aasg11
(lp178
(lp179
F860.0
aF336.0
aa(lp180
F867.0
aF368.0
aa(lp181
F819.0
aF341.0
aassS'd3'
p182
(dp183
g5
(lp184
(lp185
F723.0
aF236.0
aa(lp186
F792.0
aF277.0
aa(lp187
F704.0
aF327.0
aa(lp188
F636.0
aF286.0
aasg11
(lp189
(lp190
F755.0
aF277.0
aa(lp191
F716.0
aF293.0
aa(lp192
F721.0
aF250.0
aassS'd1'
p193
(dp194
g5
(lp195
(lp196
F979.0
aF389.0
aa(lp197
F1047.0
aF426.0
aa(lp198
F972.0
aF483.0
aa(lp199
F912.0
aF433.0
aasg11
(lp200
(lp201
F976.0
aF394.0
aa(lp202
F928.0
aF419.0
aa(lp203
F1031.0
aF417.0
aasssS'f'
p204
(dp205
S'f1'
p206
(dp207
g5
(lp208
(lp209
F896.0
aF801.0
aa(lp210
F961.0
aF851.0
aa(lp211
F961.0
aF899.0
aa(lp212
F899.0
aF844.0
aasg11
(lp213
(lp214
F894.0
aF791.0
aa(lp215
F922.0
aF812.0
aa(lp216
F897.0
aF826.0
aassS'f2'
p217
(dp218
g5
(lp219
(lp220
F768.0
aF700.0
aa(lp221
F826.0
aF750.0
aa(lp222
F826.0
aF778.0
aa(lp223
F782.0
aF743.0
aasg11
(lp224
(lp225
F803.0
aF714.0
aa(lp226
F775.0
aF732.0
aa(lp227
F824.0
aF759.0
aassS'f3'
p228
(dp229
g5
(lp230
(lp231
F677.0
aF659.0
aa(lp232
F698.0
aF640.0
aa(lp233
F666.0
aF615.0
aasg11
(lp234
(lp235
F677.0
aF620.0
aa(lp236
F682.0
aF648.0
aa(lp237
F707.0
aF638.0
aassS'f4'
p238
(dp239
g5
(lp240
(lp241
F885.0
aF680.0
aa(lp242
F963.0
aF739.0
aa(lp243
F967.0
aF805.0
aa(lp244
F885.0
aF736.0
aasg11
(lp245
(lp246
F881.0
aF686.0
aa(lp247
F904.0
aF725.0
aa(lp248
F899.0
aF672.0
aassS'f5'
p249
(dp250
g5
(lp251
(lp252
F746.0
aF602.0
aa(lp253
F780.0
aF593.0
aa(lp254
F746.0
aF572.0
aasg11
(lp255
(lp256
F881.0
aF688.0
aa(lp257
F901.0
aF672.0
aa(lp258
F903.0
aF716.0
aassS'f6'
p259
(dp260
g5
(lp261
(lp262
F652.0
aF547.0
aa(lp263
F707.0
aF597.0
aa(lp264
F691.0
aF526.0
aa(lp265
F631.0
aF476.0
aasg11
(lp266
(lp267
F680.0
aF565.0
aa(lp268
F675.0
aF538.0
aa(lp269
F657.0
aF552.0
aassS'f7'
p270
(dp271
g5
(lp272
(lp273
F869.0
aF519.0
aa(lp274
F958.0
aF579.0
aa(lp275
F961.0
aF670.0
aa(lp276
F876.0
aF602.0
aasg11
(lp277
(lp278
F862.0
aF581.0
aa(lp279
F869.0
aF554.0
aa(lp280
F904.0
aF600.0
aassS'f8'
p281
(dp282
g5
(lp283
(lp284
F720.0
aF421.0
aa(lp285
F812.0
aF490.0
aa(lp286
F814.0
aF556.0
aa(lp287
F730.0
aF504.0
aasg11
(lp288
(lp289
F778.0
aF520.0
aa(lp290
F757.0
aF467.0
aa(lp291
F805.0
aF512.0
aassS'f9'
p292
(dp293
g5
(lp294
(lp295
F609.0
aF337.0
aa(lp296
F677.0
aF387.0
aa(lp297
F688.0
aF474.0
aa(lp298
F625.0
aF428.0
aasg11
(lp299
(lp300
F668.0
aF449.0
aa(lp301
F664.0
aF408.0
aa(lp302
F640.0
aF417.0
aasssS'l'
p303
(dp304
S'l6'
p305
(dp306
g5
(lp307
(lp308
F1016.0
aF712.0
aa(lp309
F1093.0
aF659.0
aa(lp310
F1095.0
aF727.0
aa(lp311
F1020.0
aF794.0
aasg11
(lp312
(lp313
F1114.0
aF680.0
aa(lp314
F1104.0
aF716.0
aa(lp315
F1093.0
aF682.0
aassS'l7'
p316
(dp317
g5
(lp318
(lp319
F1367.0
aF323.0
aa(lp320
F1304.0
aF359.0
aa(lp321
F1296.0
aF433.0
aa(lp322
F1338.0
aF391.0
aasg11
(lp323
(lp324
F1301.0
aF453.0
aa(lp325
F1331.0
aF437.0
aa(lp326
F1303.0
aF419.0
aassS'l4'
p327
(dp328
g5
(lp329
(lp330
F1335.0
aF467.0
aa(lp331
F1288.0
aF513.0
aa(lp332
F1271.0
aF581.0
aa(lp333
F1324.0
aF540.0
aasg11
(lp334
(lp335
F1283.0
aF561.0
aa(lp336
F1301.0
aF526.0
aa(lp337
F1296.0
aF563.0
aassS'l5'
p338
(dp339
g5
(lp340
(lp341
F1200.0
aF579.0
aa(lp342
F1232.0
aF604.0
aa(lp343
F1230.0
aF570.0
aasg11
(lp344
(lp345
F1281.0
aF567.0
aa(lp346
F1294.0
aF526.0
aa(lp347
F1304.0
aF565.0
aassS'l2'
p348
(dp349
g5
(lp350
(lp351
F1148.0
aF744.0
aa(lp352
F1210.0
aF696.0
aa(lp353
F1205.0
aF739.0
aa(lp354
F1146.0
aF796.0
aasg11
(lp355
(lp356
F1184.0
aF723.0
aa(lp357
F1171.0
aF755.0
aa(lp358
F1208.0
aF728.0
aassS'l3'
p359
(dp360
g5
(lp361
(lp362
F1016.0
aF851.0
aa(lp363
F1095.0
aF791.0
aa(lp364
F1088.0
aF846.0
aa(lp365
F1022.0
aF906.0
aasg11
(lp366
(lp367
F1100.0
aF796.0
aa(lp368
F1072.0
aF817.0
aa(lp369
F1098.0
aF823.0
aassS'l1'
p370
(dp371
g5
(lp372
(lp373
F1276.0
aF625.0
aa(lp374
F1303.0
aF648.0
aa(lp375
F1306.0
aF611.0
aasg11
(lp376
(lp377
F1283.0
aF638.0
aa(lp378
F1303.0
aF648.0
aa(lp379
F1306.0
aF620.0
aassS'l8'
p380
(dp381
g5
(lp382
(lp383
F1251.0
aF414.0
aa(lp384
F1184.0
aF476.0
aa(lp385
F1175.0
aF552.0
aa(lp386
F1239.0
aF488.0
aasg11
(lp387
(lp388
F1207.0
aF524.0
aa(lp389
F1239.0
aF483.0
aa(lp390
F1178.0
aF517.0
aassS'l9'
p391
(dp392
g5
(lp393
(lp394
F1015.0
aF558.0
aa(lp395
F1105.0
aF490.0
aa(lp396
F1096.0
aF579.0
aa(lp397
F1018.0
aF641.0
aasg11
(lp398
(lp399
F1082.0
aF590.0
aa(lp400
F1080.0
aF547.0
aa(lp401
F1059.0
aF613.0
aasssS'r'
p402
(dp403
S'r4'
p404
(dp405
g5
(lp406
(lp407
F611.0
aF499.0
aa(lp408
F663.0
aF547.0
aa(lp409
F679.0
aF609.0
aa(lp410
F629.0
aF561.0
aasg11
(lp411
(lp412
F672.0
aF584.0
aa(lp413
F647.0
aF545.0
aa(lp414
F648.0
aF579.0
aassS'r5'
p415
(dp416
g5
(lp417
(lp418
F723.0
aF641.0
aa(lp419
F771.0
aF632.0
aa(lp420
F734.0
aF599.0
aa(lp421
F720.0
aF593.0
aa(lp422
F718.0
aF608.0
aasg11
(lp423
(lp424
F677.0
aF581.0
aa(lp425
F647.0
aF549.0
aa(lp426
F648.0
aF581.0
aassS'r6'
p427
(dp428
g5
(lp429
(lp430
F858.0
aF712.0
aa(lp431
F954.0
aF785.0
aa(lp432
F935.0
aF842.0
aa(lp433
F865.0
aF778.0
aasg11
(lp434
(lp435
F858.0
aF746.0
aa(lp436
F881.0
aF743.0
aa(lp437
F880.0
aF780.0
aassS'r7'
p438
(dp439
g5
(lp440
(lp441
F648.0
aF647.0
aa(lp442
F686.0
aF675.0
aa(lp443
F648.0
aF695.0
aasg11
(lp444
(lp445
F684.0
aF668.0
aa(lp446
F668.0
aF680.0
aa(lp447
F664.0
aF652.0
aassS'r1'
p448
(dp449
g5
(lp450
(lp451
F577.0
aF350.0
aa(lp452
F638.0
aF398.0
aa(lp453
F654.0
aF478.0
aa(lp454
F599.0
aF426.0
aasg11
(lp455
(lp456
F636.0
aF442.0
aa(lp457
F636.0
aF398.0
aa(lp458
F602.0
aF414.0
aassS'r2'
p459
(dp460
g5
(lp461
(lp462
F704.0
aF435.0
aa(lp463
F784.0
aF490.0
aa(lp464
F787.0
aF583.0
aa(lp465
F716.0
aF508.0
aasg11
(lp466
(lp467
F766.0
aF561.0
aa(lp468
F736.0
aF524.0
aa(lp469
F792.0
aF560.0
aassS'r3'
p470
(dp471
g5
(lp472
(lp473
F842.0
aF551.0
aa(lp474
F944.0
aF620.0
aa(lp475
F944.0
aF704.0
aa(lp476
F848.0
aF636.0
aasg11
(lp477
(lp478
F862.0
aF636.0
aa(lp479
F862.0
aF593.0
aa(lp480
F892.0
aF666.0
aassS'r8'
p481
(dp482
g5
(lp483
(lp484
F748.0
aF734.0
aa(lp485
F812.0
aF791.0
aa(lp486
F817.0
aF833.0
aa(lp487
F752.0
aF778.0
aasg11
(lp488
(lp489
F780.0
aF764.0
aa(lp490
F801.0
aF794.0
aa(lp491
F776.0
aF780.0
aassS'r9'
p492
(dp493
g5
(lp494
(lp495
F874.0
aF842.0
aa(lp496
F961.0
aF928.0
aa(lp497
F960.0
aF976.0
aa(lp498
F881.0
aF899.0
aasg11
(lp499
(lp500
F888.0
aF849.0
aa(lp501
F919.0
aF874.0
aa(lp502
F890.0
aF899.0
aasssS'u'
p503
(dp504
S'u9'
p505
(dp506
g5
(lp507
(lp508
F709.0
aF232.0
aa(lp509
F776.0
aF282.0
aa(lp510
F670.0
aF332.0
aa(lp511
F586.0
aF277.0
aasg11
(lp512
(lp513
F792.0
aF279.0
aa(lp514
F757.0
aF252.0
aa(lp515
F741.0
aF293.0
aassS'u8'
p516
(dp517
g5
(lp518
(lp519
F858.0
aF163.0
aa(lp520
F931.0
aF195.0
aa(lp521
F844.0
aF232.0
aa(lp522
F768.0
aF199.0
aasg11
(lp523
(lp524
F903.0
aF213.0
aa(lp525
F908.0
aF181.0
aa(lp526
F855.0
aF211.0
aassS'u5'
p527
(dp528
g5
(lp529
(lp530
F958.0
aF234.0
aa(lp531
F954.0
aF252.0
aa(lp532
F954.0
aF268.0
aa(lp533
F954.0
aF291.0
aa(lp534
F954.0
aF296.0
aa(lp535
F965.0
aF311.0
aa(lp536
F965.0
aF311.0
aa(lp537
F945.0
aF311.0
aa(lp538
F935.0
aF296.0
aa(lp539
F913.0
aF288.0
aa(lp540
F904.0
aF275.0
aa(lp541
F904.0
aF261.0
aa(lp542
F929.0
aF248.0
aasg11
(lp543
(lp544
F1096.0
aF216.0
aa(lp545
F1091.0
aF186.0
aa(lp546
F1141.0
aF224.0
aassS'u4'
p547
(dp548
g5
(lp549
(lp550
F1125.0
aF167.0
aa(lp551
F1232.0
aF202.0
aa(lp552
F1148.0
aF241.0
aa(lp553
F1052.0
aF197.0
aasg11
(lp554
(lp555
F1093.0
aF215.0
aa(lp556
F1089.0
aF186.0
aa(lp557
F1137.0
aF218.0
aassS'u7'
p558
(dp559
g5
(lp560
(lp561
F956.0
aF112.0
aa(lp562
F958.0
aF151.0
aa(lp563
F913.0
aF133.0
aasg11
(lp564
(lp565
F1041.0
aF120.0
aa(lp566
F1045.0
aF151.0
aa(lp567
F1061.0
aF140.0
aassS'u6'
p568
(dp569
g5
(lp570
(lp571
F837.0
aF314.0
aa(lp572
F928.0
aF369.0
aa(lp573
F826.0
aF432.0
aa(lp574
F718.0
aF357.0
aasg11
(lp575
(lp576
F855.0
aF353.0
aa(lp577
F862.0
aF378.0
aa(lp578
F826.0
aF376.0
aa(lp579
F826.0
aF359.0
aassS'u1'
p580
(dp581
g5
(lp582
(lp583
F1214.0
aF273.0
aa(lp584
F1280.0
aF234.0
aa(lp585
F1381.0
aF279.0
aa(lp586
F1313.0
aF334.0
aasg11
(lp587
(lp588
F1228.0
aF277.0
aa(lp589
F1258.0
aF250.0
aa(lp590
F1283.0
aF304.0
aassS'u3'
p591
(dp592
g5
(lp593
(lp594
F986.0
aF410.0
aa(lp595
F1102.0
aF481.0
aa(lp596
F988.0
aF560.0
aa(lp597
F860.0
aF483.0
aasg11
(lp598
(lp599
F983.0
aF453.0
aa(lp600
F1015.0
aF472.0
aa(lp601
F995.0
aF499.0
aa(lp602
F967.0
aF472.0
aassS'u2'
p603
(dp604
g5
(lp605
(lp606
F1143.0
aF320.0
aa(lp607
F1258.0
aF371.0
aa(lp608
F1162.0
aF442.0
aa(lp609
F1048.0
aF368.0
aasg11
(lp610
(lp611
F1120.0
aF325.0
aa(lp612
F1128.0
aF375.0
aa(lp613
F1155.0
aF328.0
aasss.