(dp0
S'b'
p1
(dp2
S'b4'
p3
(dp4
S'standard'
p5
(lp6
(lp7
F1022.0
aF787.0
aa(lp8
F1111.0
aF712.0
aa(lp9
F1107.0
aF782.0
aa(lp10
F1018.0
aF864.0
aasS'calibration'
p11
(lp12
(lp13
F1096.0
aF796.0
aa(lp14
F1120.0
aF759.0
aa(lp15
F1089.0
aF746.0
aassS'b5'
p16
(dp17
g5
(lp18
(lp19
F1210.0
aF725.0
aa(lp20
F1173.0
aF684.0
aa(lp21
F1169.0
aF728.0
aa(lp22
F1171.0
aF746.0
aasg11
(lp23
(lp24
F1095.0
aF743.0
aa(lp25
F1098.0
aF789.0
aa(lp26
F1123.0
aF759.0
aassS'b6'
p27
(dp28
g5
(lp29
(lp30
F1317.0
aF563.0
aa(lp31
F1365.0
aF512.0
aa(lp32
F1345.0
aF576.0
aa(lp33
F1299.0
aF631.0
aasg11
(lp34
(lp35
F1312.0
aF595.0
aa(lp36
F1329.0
aF560.0
aa(lp37
F1331.0
aF604.0
aassS'b7'
p38
(dp39
g5
(lp40
(lp41
F1022.0
aF967.0
aa(lp42
F1024.0
aF920.0
aa(lp43
F1109.0
aF844.0
aa(lp44
F1096.0
aF897.0
aasg11
(lp45
(lp46
F1072.0
aF883.0
aa(lp47
F1088.0
aF904.0
aa(lp48
F1107.0
aF865.0
aassS'b1'
p49
(dp50
g5
(lp51
(lp52
F1031.0
aF629.0
aa(lp53
F1125.0
aF551.0
aa(lp54
F1123.0
aF634.0
aa(lp55
F1024.0
aF716.0
aasg11
(lp56
(lp57
F1121.0
aF632.0
aa(lp58
F1118.0
aF579.0
aa(lp59
F1080.0
aF647.0
aassS'b2'
p60
(dp61
g5
(lp62
(lp63
F1207.0
aF504.0
aa(lp64
F1290.0
aF435.0
aa(lp65
F1272.0
aF512.0
aa(lp66
F1198.0
aF581.0
aasg11
(lp67
(lp68
F1224.0
aF570.0
aa(lp69
F1248.0
aF522.0
aa(lp70
F1205.0
aF547.0
aassS'b3'
p71
(dp72
g5
(lp73
(lp74
F1349.0
aF398.0
aa(lp75
F1409.0
aF348.0
aa(lp76
F1388.0
aF424.0
aa(lp77
F1331.0
aF474.0
aasg11
(lp78
(lp79
F1376.0
aF442.0
aa(lp80
F1402.0
aF419.0
aa(lp81
F1392.0
aF407.0
aassS'b8'
p82
(dp83
g5
(lp84
(lp85
F1159.0
aF808.0
aa(lp86
F1232.0
aF744.0
aa(lp87
F1214.0
aF792.0
aa(lp88
F1155.0
aF846.0
aasg11
(lp89
(lp90
F1205.0
aF760.0
aa(lp91
F1191.0
aF796.0
aa(lp92
F1226.0
aF760.0
aassS'b9'
p93
(dp94
g5
(lp95
(lp96
F1301.0
aF680.0
aa(lp97
F1338.0
aF643.0
aa(lp98
F1329.0
aF680.0
aasg11
(lp99
(lp100
F1301.0
aF680.0
aa(lp101
F1329.0
aF691.0
aa(lp102
F1335.0
aF661.0
aasssS'd'
p103
(dp104
S'd8'
p105
(dp106
g5
(lp107
(lp108
F1096.0
aF197.0
aa(lp109
F1178.0
aF232.0
aa(lp110
F1109.0
aF270.0
aa(lp111
F1027.0
aF234.0
aasg11
(lp112
(lp113
F1077.0
aF232.0
aa(lp114
F1107.0
aF241.0
aa(lp115
F1100.0
aF224.0
aassS'd9'
p116
(dp117
g5
(lp118
(lp119
F1004.0
aF161.0
aa(lp120
F1004.0
aF204.0
aa(lp121
F1047.0
aF179.0
aasg11
(lp122
(lp123
F928.0
aF174.0
aa(lp124
F931.0
aF197.0
aa(lp125
F906.0
aF188.0
aassS'd6'
p126
(dp127
g5
(lp128
(lp129
F929.0
aF238.0
aa(lp130
F840.0
aF275.0
aa(lp131
F785.0
aF238.0
aa(lp132
F867.0
aF199.0
aasg11
(lp133
(lp134
F851.0
aF248.0
aa(lp135
F874.0
aF231.0
aa(lp136
F844.0
aF224.0
aassS'd7'
p137
(dp138
g5
(lp139
(lp140
F1233.0
aF261.0
aa(lp141
F1160.0
aF302.0
aa(lp142
F1255.0
aF346.0
aa(lp143
F1324.0
aF304.0
aasg11
(lp144
(lp145
F1239.0
aF282.0
aa(lp146
F1301.0
aF305.0
aa(lp147
F1264.0
aF325.0
aa(lp148
F1217.0
aF304.0
aassS'd4'
p149
(dp150
g5
(lp151
(lp152
F1118.0
aF339.0
aa(lp153
F1207.0
aF373.0
aa(lp154
F1123.0
aF430.0
aa(lp155
F1034.0
aF382.0
aasg11
(lp156
(lp157
F1123.0
aF346.0
aa(lp158
F1178.0
aF369.0
aa(lp159
F1128.0
aF403.0
aa(lp160
F1086.0
aF378.0
aassS'd5'
p161
(dp162
g5
(lp163
(lp164
F1004.0
aF264.0
aa(lp165
F1020.0
aF325.0
aa(lp166
F1045.0
aF312.0
aa(lp167
F1057.0
aF302.0
aa(lp168
F1048.0
aF286.0
aasg11
(lp169
(lp170
F848.0
aF247.0
aa(lp171
F874.0
aF231.0
aa(lp172
F846.0
aF225.0
aassS'd2'
p173
(dp174
g5
(lp175
(lp176
F835.0
aF343.0
aa(lp177
F908.0
aF385.0
aa(lp178
F819.0
aF432.0
aa(lp179
F746.0
aF387.0
aasg11
(lp180
(lp181
F832.0
aF371.0
aa(lp182
F860.0
aF380.0
aa(lp183
F826.0
aF396.0
aa(lp184
F800.0
aF380.0
aassS'd3'
p185
(dp186
g5
(lp187
(lp188
F725.0
aF280.0
aa(lp189
F787.0
aF307.0
aa(lp190
F700.0
aF348.0
aa(lp191
F636.0
aF311.0
aasg11
(lp192
(lp193
F723.0
aF291.0
aa(lp194
F730.0
aF314.0
aa(lp195
F698.0
aF311.0
aassS'd1'
p196
(dp197
g5
(lp198
(lp199
F976.0
aF405.0
aa(lp200
F1066.0
aF460.0
aa(lp201
F970.0
aF517.0
aa(lp202
F874.0
aF462.0
aasg11
(lp203
(lp204
F979.0
aF442.0
aa(lp205
F1013.0
aF464.0
aa(lp206
F984.0
aF492.0
aa(lp207
F944.0
aF467.0
aasssS'f'
p208
(dp209
S'f1'
p210
(dp211
g5
(lp212
(lp213
F876.0
aF816.0
aa(lp214
F945.0
aF871.0
aa(lp215
F952.0
aF910.0
aa(lp216
F887.0
aF864.0
aasg11
(lp217
(lp218
F908.0
aF848.0
aa(lp219
F942.0
aF871.0
aa(lp220
F922.0
aF874.0
aassS'f2'
p221
(dp222
g5
(lp223
(lp224
F771.0
aF734.0
aa(lp225
F823.0
aF784.0
aa(lp226
F844.0
aF833.0
aa(lp227
F769.0
aF768.0
aasg11
(lp228
(lp229
F789.0
aF750.0
aa(lp230
F814.0
aF773.0
aa(lp231
F794.0
aF776.0
aassS'f3'
p232
(dp233
g5
(lp234
(lp235
F680.0
aF679.0
aa(lp236
F705.0
aF666.0
aa(lp237
F668.0
aF638.0
aasg11
(lp238
(lp239
F691.0
aF682.0
aa(lp240
F707.0
aF673.0
aa(lp241
F686.0
aF657.0
aassS'f4'
p242
(dp243
g5
(lp244
(lp245
F865.0
aF680.0
aa(lp246
F956.0
aF746.0
aa(lp247
F949.0
aF812.0
aa(lp248
F874.0
aF750.0
aasg11
(lp249
(lp250
F903.0
aF762.0
aa(lp251
F920.0
aF760.0
aa(lp252
F912.0
aF730.0
aassS'f5'
p253
(dp254
g5
(lp255
(lp256
F748.0
aF627.0
aa(lp257
F778.0
aF618.0
aa(lp258
F748.0
aF604.0
aasg11
(lp259
(lp260
F670.0
aF583.0
aa(lp261
F693.0
aF606.0
aa(lp262
F686.0
aF568.0
aassS'f6'
p263
(dp264
g5
(lp265
(lp266
F661.0
aF588.0
aa(lp267
F712.0
aF629.0
aa(lp268
F700.0
aF560.0
aa(lp269
F636.0
aF508.0
aasg11
(lp270
(lp271
F675.0
aF590.0
aa(lp272
F691.0
aF606.0
aa(lp273
F689.0
aF574.0
aassS'f7'
p274
(dp275
g5
(lp276
(lp277
F945.0
aF684.0
aa(lp278
F931.0
aF581.0
aa(lp279
F846.0
aF515.0
aa(lp280
F864.0
aF606.0
aasg11
(lp281
(lp282
F869.0
aF579.0
aa(lp283
F872.0
aF551.0
aa(lp284
F908.0
aF609.0
aassS'f8'
p285
(dp286
g5
(lp287
(lp288
F716.0
aF446.0
aa(lp289
F787.0
aF496.0
aa(lp290
F800.0
aF579.0
aa(lp291
F730.0
aF520.0
aasg11
(lp292
(lp293
F768.0
aF517.0
aa(lp294
F752.0
aF483.0
aa(lp295
F791.0
aF503.0
aassS'f9'
p296
(dp297
g5
(lp298
(lp299
F618.0
aF380.0
aa(lp300
F670.0
aF423.0
aa(lp301
F680.0
aF483.0
aa(lp302
F625.0
aF449.0
aasg11
(lp303
(lp304
F682.0
aF444.0
aa(lp305
F641.0
aF417.0
aa(lp306
F670.0
aF408.0
aasssS'l'
p307
(dp308
S'l6'
p309
(dp310
g5
(lp311
(lp312
F1018.0
aF812.0
aa(lp313
F1088.0
aF750.0
aa(lp314
F1089.0
aF691.0
aa(lp315
F1002.0
aF744.0
aasg11
(lp316
(lp317
F1043.0
aF757.0
aa(lp318
F1084.0
aF720.0
aa(lp319
F1093.0
aF739.0
aa(lp320
F1059.0
aF766.0
aassS'l7'
p321
(dp322
g5
(lp323
(lp324
F1347.0
aF375.0
aa(lp325
F1290.0
aF403.0
aa(lp326
F1278.0
aF488.0
aa(lp327
F1331.0
aF442.0
aasg11
(lp328
(lp329
F1328.0
aF435.0
aa(lp330
F1351.0
aF417.0
aa(lp331
F1333.0
aF396.0
aassS'l4'
p332
(dp333
g5
(lp334
(lp335
F1260.0
aF625.0
aa(lp336
F1313.0
aF583.0
aa(lp337
F1326.0
aF508.0
aa(lp338
F1269.0
aF554.0
aasg11
(lp339
(lp340
F1285.0
aF554.0
aa(lp341
F1326.0
aF520.0
aa(lp342
F1315.0
aF583.0
aa(lp343
F1278.0
aF613.0
aassS'l5'
p344
(dp345
g5
(lp346
(lp347
F1232.0
aF579.0
aa(lp348
F1228.0
aF631.0
aa(lp349
F1212.0
aF620.0
aa(lp350
F1201.0
aF627.0
aa(lp351
F1180.0
aF643.0
aa(lp352
F1169.0
aF645.0
aa(lp353
F1169.0
aF631.0
aa(lp354
F1168.0
aF616.0
aasg11
(lp355
(lp356
F1178.0
aF551.0
aa(lp357
F1228.0
aF512.0
aa(lp358
F1235.0
aF464.0
aa(lp359
F1187.0
aF494.0
aassS'l2'
p360
(dp361
g5
(lp362
(lp363
F1137.0
aF819.0
aa(lp364
F1200.0
aF766.0
aa(lp365
F1198.0
aF734.0
aa(lp366
F1143.0
aF784.0
aasg11
(lp367
(lp368
F1157.0
aF808.0
aa(lp369
F1208.0
aF778.0
aa(lp370
F1182.0
aF766.0
aassS'l3'
p371
(dp372
g5
(lp373
(lp374
F1015.0
aF931.0
aa(lp375
F1091.0
aF864.0
aa(lp376
F1084.0
aF814.0
aa(lp377
F1020.0
aF878.0
aasg11
(lp378
(lp379
F1040.0
aF876.0
aa(lp380
F1091.0
aF835.0
aa(lp381
F1091.0
aF862.0
aa(lp382
F1041.0
aF906.0
aassS'l1'
p383
(dp384
g5
(lp385
(lp386
F1296.0
aF675.0
aa(lp387
F1299.0
aF643.0
aa(lp388
F1269.0
aF666.0
aasg11
(lp389
(lp390
F1283.0
aF672.0
aa(lp391
F1297.0
aF680.0
aa(lp392
F1308.0
aF643.0
aassS'l8'
p393
(dp394
g5
(lp395
(lp396
F1239.0
aF432.0
aa(lp397
F1148.0
aF490.0
aa(lp398
F1152.0
aF563.0
aa(lp399
F1226.0
aF510.0
aasg11
(lp400
(lp401
F1198.0
aF519.0
aa(lp402
F1226.0
aF487.0
aa(lp403
F1198.0
aF478.0
aassS'l9'
p404
(dp405
g5
(lp406
(lp407
F990.0
aF579.0
aa(lp408
F1095.0
aF519.0
aa(lp409
F1095.0
aF609.0
aa(lp410
F997.0
aF688.0
aasg11
(lp411
(lp412
F1032.0
aF625.0
aa(lp413
F1064.0
aF600.0
aa(lp414
F1050.0
aF586.0
aasssS'r'
p415
(dp416
S'r4'
p417
(dp418
g5
(lp419
(lp420
F611.0
aF499.0
aa(lp421
F663.0
aF547.0
aa(lp422
F679.0
aF609.0
aa(lp423
F629.0
aF561.0
aasg11
(lp424
(lp425
F645.0
aF536.0
aa(lp426
F666.0
aF542.0
aa(lp427
F670.0
aF568.0
aassS'r5'
p428
(dp429
g5
(lp430
(lp431
F723.0
aF641.0
aa(lp432
F771.0
aF632.0
aa(lp433
F734.0
aF599.0
aa(lp434
F720.0
aF593.0
aa(lp435
F718.0
aF608.0
aasg11
(lp436
(lp437
F666.0
aF576.0
aa(lp438
F670.0
aF542.0
aa(lp439
F647.0
aF536.0
aassS'r6'
p440
(dp441
g5
(lp442
(lp443
F858.0
aF712.0
aa(lp444
F954.0
aF785.0
aa(lp445
F935.0
aF842.0
aa(lp446
F865.0
aF778.0
aasg11
(lp447
(lp448
F880.0
aF757.0
aa(lp449
F912.0
aF773.0
aa(lp450
F892.0
aF792.0
aassS'r7'
p451
(dp452
g5
(lp453
(lp454
F648.0
aF647.0
aa(lp455
F686.0
aF675.0
aa(lp456
F648.0
aF695.0
aasg11
(lp457
(lp458
F668.0
aF679.0
aa(lp459
F682.0
aF668.0
aa(lp460
F661.0
aF650.0
aassS'r1'
p461
(dp462
g5
(lp463
(lp464
F577.0
aF350.0
aa(lp465
F638.0
aF398.0
aa(lp466
F654.0
aF478.0
aa(lp467
F599.0
aF426.0
aasg11
(lp468
(lp469
F615.0
aF435.0
aa(lp470
F636.0
aF421.0
aa(lp471
F613.0
aF400.0
aassS'r2'
p472
(dp473
g5
(lp474
(lp475
F704.0
aF435.0
aa(lp476
F784.0
aF490.0
aa(lp477
F787.0
aF583.0
aa(lp478
F716.0
aF508.0
aasg11
(lp479
(lp480
F730.0
aF472.0
aa(lp481
F768.0
aF490.0
aa(lp482
F752.0
aF512.0
aassS'r3'
p483
(dp484
g5
(lp485
(lp486
F842.0
aF551.0
aa(lp487
F944.0
aF620.0
aa(lp488
F944.0
aF704.0
aa(lp489
F848.0
aF636.0
aasg11
(lp490
(lp491
F912.0
aF608.0
aa(lp492
F926.0
aF663.0
aa(lp493
F897.0
aF632.0
aassS'r8'
p494
(dp495
g5
(lp496
(lp497
F748.0
aF734.0
aa(lp498
F812.0
aF791.0
aa(lp499
F817.0
aF833.0
aa(lp500
F752.0
aF778.0
aasg11
(lp501
(lp502
F773.0
aF755.0
aa(lp503
F789.0
aF775.0
aa(lp504
F773.0
aF776.0
aassS'r9'
p505
(dp506
g5
(lp507
(lp508
F874.0
aF842.0
aa(lp509
F961.0
aF928.0
aa(lp510
F960.0
aF976.0
aa(lp511
F881.0
aF899.0
aasg11
(lp512
(lp513
F885.0
aF860.0
aa(lp514
F912.0
aF887.0
aa(lp515
F924.0
aF924.0
aasssS'u'
p516
(dp517
S'u9'
p518
(dp519
g5
(lp520
(lp521
F709.0
aF232.0
aa(lp522
F776.0
aF282.0
aa(lp523
F670.0
aF332.0
aa(lp524
F586.0
aF277.0
aasg11
(lp525
(lp526
F714.0
aF243.0
aa(lp527
F739.0
aF254.0
aa(lp528
F709.0
aF266.0
aa(lp529
F691.0
aF252.0
aassS'u8'
p530
(dp531
g5
(lp532
(lp533
F858.0
aF163.0
aa(lp534
F931.0
aF195.0
aa(lp535
F844.0
aF232.0
aa(lp536
F768.0
aF199.0
aasg11
(lp537
(lp538
F840.0
aF181.0
aa(lp539
F871.0
aF163.0
aa(lp540
F904.0
aF174.0
aa(lp541
F872.0
aF188.0
aassS'u5'
p542
(dp543
g5
(lp544
(lp545
F958.0
aF234.0
aa(lp546
F954.0
aF252.0
aa(lp547
F954.0
aF268.0
aa(lp548
F954.0
aF291.0
aa(lp549
F954.0
aF296.0
aa(lp550
F965.0
aF311.0
aa(lp551
F965.0
aF311.0
aa(lp552
F945.0
aF311.0
aa(lp553
F935.0
aF296.0
aa(lp554
F913.0
aF288.0
aa(lp555
F904.0
aF275.0
aa(lp556
F904.0
aF261.0
aa(lp557
F929.0
aF248.0
aasg11
(lp558
(lp559
F855.0
aF339.0
aa(lp560
F874.0
aF362.0
aa(lp561
F828.0
aF369.0
aassS'u4'
p562
(dp563
g5
(lp564
(lp565
F1125.0
aF167.0
aa(lp566
F1232.0
aF202.0
aa(lp567
F1148.0
aF241.0
aa(lp568
F1052.0
aF197.0
aasg11
(lp569
(lp570
F1152.0
aF172.0
aa(lp571
F1176.0
aF186.0
aa(lp572
F1128.0
aF202.0
aassS'u7'
p573
(dp574
g5
(lp575
(lp576
F956.0
aF112.0
aa(lp577
F958.0
aF151.0
aa(lp578
F913.0
aF133.0
aasg11
(lp579
(lp580
F956.0
aF113.0
aa(lp581
F956.0
aF144.0
aa(lp582
F931.0
aF131.0
aassS'u6'
p583
(dp584
g5
(lp585
(lp586
F837.0
aF314.0
aa(lp587
F928.0
aF369.0
aa(lp588
F826.0
aF432.0
aa(lp589
F718.0
aF357.0
aasg11
(lp590
(lp591
F858.0
aF343.0
aa(lp592
F872.0
aF362.0
aa(lp593
F833.0
aF366.0
aassS'u1'
p594
(dp595
g5
(lp596
(lp597
F1214.0
aF273.0
aa(lp598
F1280.0
aF234.0
aa(lp599
F1381.0
aF279.0
aa(lp600
F1313.0
aF334.0
aasg11
(lp601
(lp602
F1308.0
aF254.0
aa(lp603
F1340.0
aF268.0
aa(lp604
F1304.0
aF275.0
aassS'u3'
p605
(dp606
g5
(lp607
(lp608
F986.0
aF410.0
aa(lp609
F1102.0
aF481.0
aa(lp610
F988.0
aF560.0
aa(lp611
F860.0
aF483.0
aasg11
(lp612
(lp613
F977.0
aF439.0
aa(lp614
F1018.0
aF455.0
aa(lp615
F961.0
aF471.0
aassS'u2'
p616
(dp617
g5
(lp618
(lp619
F1143.0
aF320.0
aa(lp620
F1258.0
aF371.0
aa(lp621
F1162.0
aF442.0
aa(lp622
F1048.0
aF368.0
aasg11
(lp623
(lp624
F1162.0
aF343.0
aa(lp625
F1200.0
aF350.0
aa(lp626
F1168.0
aF373.0
aasss.