(dp0
S'b'
p1
(dp2
S'b4'
p3
(dp4
S'standard'
p5
(lp6
(lp7
F1022.0
aF787.0
aa(lp8
F1111.0
aF712.0
aa(lp9
F1107.0
aF782.0
aa(lp10
F1018.0
aF864.0
aasS'calibration'
p11
(lp12
(lp13
F1091.0
aF776.0
aa(lp14
F1063.0
aF807.0
aa(lp15
F1052.0
aF784.0
aassS'b5'
p16
(dp17
g5
(lp18
(lp19
F1210.0
aF725.0
aa(lp20
F1173.0
aF684.0
aa(lp21
F1169.0
aF728.0
aa(lp22
F1171.0
aF746.0
aasg11
(lp23
(lp24
F1093.0
aF782.0
aa(lp25
F1072.0
aF805.0
aa(lp26
F1045.0
aF782.0
aassS'b6'
p27
(dp28
g5
(lp29
(lp30
F1317.0
aF563.0
aa(lp31
F1365.0
aF512.0
aa(lp32
F1345.0
aF576.0
aa(lp33
F1299.0
aF631.0
aasg11
(lp34
(lp35
F1319.0
aF572.0
aa(lp36
F1361.0
aF526.0
aa(lp37
F1345.0
aF583.0
aassS'b7'
p38
(dp39
g5
(lp40
(lp41
F1022.0
aF967.0
aa(lp42
F1024.0
aF920.0
aa(lp43
F1109.0
aF844.0
aa(lp44
F1096.0
aF897.0
aasg11
(lp45
(lp46
F1077.0
aF885.0
aa(lp47
F1080.0
aF906.0
aa(lp48
F1045.0
aF910.0
aassS'b1'
p49
(dp50
g5
(lp51
(lp52
F1031.0
aF629.0
aa(lp53
F1125.0
aF551.0
aa(lp54
F1123.0
aF634.0
aa(lp55
F1024.0
aF716.0
aasg11
(lp56
(lp57
F1063.0
aF647.0
aa(lp58
F1114.0
aF616.0
aa(lp59
F1077.0
aF600.0
aassS'b2'
p60
(dp61
g5
(lp62
(lp63
F1207.0
aF504.0
aa(lp64
F1290.0
aF435.0
aa(lp65
F1272.0
aF512.0
aa(lp66
F1198.0
aF581.0
aasg11
(lp67
(lp68
F1232.0
aF570.0
aa(lp69
F1269.0
aF517.0
aa(lp70
F1208.0
aF567.0
aassS'b3'
p71
(dp72
g5
(lp73
(lp74
F1349.0
aF398.0
aa(lp75
F1409.0
aF348.0
aa(lp76
F1388.0
aF424.0
aa(lp77
F1331.0
aF474.0
aasg11
(lp78
(lp79
F1331.0
aF492.0
aa(lp80
F1376.0
aF460.0
aa(lp81
F1344.0
aF449.0
aassS'b8'
p82
(dp83
g5
(lp84
(lp85
F1159.0
aF808.0
aa(lp86
F1232.0
aF744.0
aa(lp87
F1214.0
aF792.0
aa(lp88
F1155.0
aF846.0
aasg11
(lp89
(lp90
F1194.0
aF778.0
aa(lp91
F1169.0
aF803.0
aa(lp92
F1194.0
aF803.0
aa(lp93
F1212.0
aF780.0
aassS'b9'
p94
(dp95
g5
(lp96
(lp97
F1301.0
aF680.0
aa(lp98
F1338.0
aF643.0
aa(lp99
F1329.0
aF680.0
aasg11
(lp100
(lp101
F1299.0
aF680.0
aa(lp102
F1322.0
aF688.0
aa(lp103
F1329.0
aF654.0
aasssS'd'
p104
(dp105
S'd8'
p106
(dp107
g5
(lp108
(lp109
F1123.0
aF208.0
aa(lp110
F1169.0
aF179.0
aa(lp111
F1102.0
aF158.0
aa(lp112
F1045.0
aF179.0
aasg11
(lp113
(lp114
F1086.0
aF215.0
aa(lp115
F1088.0
aF190.0
aa(lp116
F1123.0
aF211.0
aassS'd9'
p117
(dp118
g5
(lp119
(lp120
F1018.0
aF142.0
aa(lp121
F1045.0
aF133.0
aa(lp122
F1013.0
aF113.0
aasg11
(lp123
(lp124
F942.0
aF112.0
aa(lp125
F942.0
aF138.0
aa(lp126
F912.0
aF126.0
aassS'd6'
p127
(dp128
g5
(lp129
(lp130
F849.0
aF209.0
aa(lp131
F908.0
aF176.0
aa(lp132
F864.0
aF149.0
aa(lp133
F801.0
aF181.0
aasg11
(lp134
(lp135
F851.0
aF172.0
aa(lp136
F887.0
aF186.0
aa(lp137
F830.0
aF195.0
aassS'd7'
p138
(dp139
g5
(lp140
(lp141
F1237.0
aF222.0
aa(lp142
F1326.0
aF259.0
aa(lp143
F1267.0
aF302.0
aa(lp144
F1166.0
aF263.0
aasg11
(lp145
(lp146
F1205.0
aF266.0
aa(lp147
F1237.0
aF243.0
aa(lp148
F1244.0
aF293.0
aassS'd4'
p149
(dp150
g5
(lp151
(lp152
F1139.0
aF360.0
aa(lp153
F1223.0
aF316.0
aa(lp154
F1127.0
aF279.0
aa(lp155
F1043.0
aF330.0
aasg11
(lp156
(lp157
F1098.0
aF316.0
aa(lp158
F1096.0
aF350.0
aa(lp159
F1139.0
aF305.0
aassS'd5'
p160
(dp161
g5
(lp162
(lp163
F1020.0
aF220.0
aa(lp164
F1015.0
aF272.0
aa(lp165
F1036.0
aF266.0
aa(lp166
F1045.0
aF250.0
aa(lp167
F1040.0
aF231.0
aasg11
(lp168
(lp169
F1155.0
aF304.0
aa(lp170
F1102.0
aF314.0
aa(lp171
F1107.0
aF348.0
aassS'd2'
p172
(dp173
g5
(lp174
(lp175
F833.0
aF309.0
aa(lp176
F901.0
aF341.0
aa(lp177
F830.0
aF382.0
aa(lp178
F755.0
aF350.0
aasg11
(lp179
(lp180
F860.0
aF336.0
aa(lp181
F867.0
aF368.0
aa(lp182
F819.0
aF341.0
aassS'd3'
p183
(dp184
g5
(lp185
(lp186
F641.0
aF248.0
aa(lp187
F679.0
aF282.0
aa(lp188
F771.0
aF254.0
aa(lp189
F727.0
aF218.0
aasg11
(lp190
(lp191
F755.0
aF277.0
aa(lp192
F716.0
aF293.0
aa(lp193
F721.0
aF250.0
aassS'd1'
p194
(dp195
g5
(lp196
(lp197
F979.0
aF389.0
aa(lp198
F1047.0
aF426.0
aa(lp199
F972.0
aF483.0
aa(lp200
F912.0
aF433.0
aasg11
(lp201
(lp202
F976.0
aF394.0
aa(lp203
F928.0
aF419.0
aa(lp204
F1031.0
aF417.0
aasssS'f'
p205
(dp206
S'f1'
p207
(dp208
g5
(lp209
(lp210
F929.0
aF867.0
aa(lp211
F928.0
aF830.0
aa(lp212
F862.0
aF762.0
aa(lp213
F872.0
aF826.0
aasg11
(lp214
(lp215
F894.0
aF791.0
aa(lp216
F922.0
aF812.0
aa(lp217
F897.0
aF826.0
aassS'f2'
p218
(dp219
g5
(lp220
(lp221
F755.0
aF666.0
aa(lp222
F821.0
aF723.0
aa(lp223
F821.0
aF769.0
aa(lp224
F760.0
aF714.0
aasg11
(lp225
(lp226
F803.0
aF714.0
aa(lp227
F775.0
aF732.0
aa(lp228
F824.0
aF759.0
aassS'f3'
p229
(dp230
g5
(lp231
(lp232
F684.0
aF632.0
aa(lp233
F705.0
aF618.0
aa(lp234
F675.0
aF597.0
aasg11
(lp235
(lp236
F680.0
aF638.0
aa(lp237
F702.0
aF629.0
aa(lp238
F680.0
aF615.0
aassS'f4'
p239
(dp240
g5
(lp241
(lp242
F935.0
aF775.0
aa(lp243
F929.0
aF700.0
aa(lp244
F856.0
aF645.0
aa(lp245
F862.0
aF709.0
aasg11
(lp246
(lp247
F901.0
aF695.0
aa(lp248
F908.0
aF743.0
aa(lp249
F876.0
aF714.0
aassS'f5'
p250
(dp251
g5
(lp252
(lp253
F734.0
aF583.0
aa(lp254
F775.0
aF567.0
aa(lp255
F748.0
aF547.0
aa(lp256
F728.0
aF544.0
aa(lp257
F723.0
aF545.0
aasg11
(lp258
(lp259
F904.0
aF696.0
aa(lp260
F915.0
aF746.0
aa(lp261
F878.0
aF718.0
aassS'f6'
p262
(dp263
g5
(lp264
(lp265
F648.0
aF520.0
aa(lp266
F693.0
aF556.0
aa(lp267
F677.0
aF483.0
aa(lp268
F634.0
aF456.0
aasg11
(lp269
(lp270
F675.0
aF529.0
aa(lp271
F664.0
aF499.0
aa(lp272
F659.0
aF522.0
aassS'f7'
p273
(dp274
g5
(lp275
(lp276
F839.0
aF481.0
aa(lp277
F928.0
aF536.0
aa(lp278
F931.0
aF616.0
aa(lp279
F851.0
aF560.0
aasg11
(lp280
(lp281
F864.0
aF540.0
aa(lp282
F901.0
aF560.0
aa(lp283
F897.0
aF599.0
aassS'f8'
p284
(dp285
g5
(lp286
(lp287
F720.0
aF421.0
aa(lp288
F812.0
aF490.0
aa(lp289
F814.0
aF556.0
aa(lp290
F730.0
aF504.0
aasg11
(lp291
(lp292
F778.0
aF520.0
aa(lp293
F757.0
aF467.0
aa(lp294
F805.0
aF512.0
aassS'f9'
p295
(dp296
g5
(lp297
(lp298
F599.0
aF298.0
aa(lp299
F654.0
aF341.0
aa(lp300
F670.0
aF423.0
aa(lp301
F632.0
aF391.0
aasg11
(lp302
(lp303
F636.0
aF375.0
aa(lp304
F659.0
aF384.0
aa(lp305
F659.0
aF430.0
aasssS'l'
p306
(dp307
S'l6'
p308
(dp309
g5
(lp310
(lp311
F1006.0
aF753.0
aa(lp312
F1063.0
aF718.0
aa(lp313
F1056.0
aF664.0
aa(lp314
F1013.0
aF693.0
aasg11
(lp315
(lp316
F1022.0
aF746.0
aa(lp317
F1077.0
aF704.0
aa(lp318
F1048.0
aF695.0
aassS'l7'
p319
(dp320
g5
(lp321
(lp322
F1296.0
aF416.0
aa(lp323
F1336.0
aF392.0
aa(lp324
F1345.0
aF343.0
aa(lp325
F1296.0
aF360.0
aasg11
(lp326
(lp327
F1303.0
aF394.0
aa(lp328
F1331.0
aF371.0
aa(lp329
F1308.0
aF353.0
aassS'l4'
p330
(dp331
g5
(lp332
(lp333
F1335.0
aF467.0
aa(lp334
F1288.0
aF513.0
aa(lp335
F1271.0
aF581.0
aa(lp336
F1324.0
aF540.0
aasg11
(lp337
(lp338
F1290.0
aF538.0
aa(lp339
F1319.0
aF535.0
aa(lp340
F1306.0
aF501.0
aassS'l5'
p341
(dp342
g5
(lp343
(lp344
F1191.0
aF574.0
aa(lp345
F1216.0
aF586.0
aa(lp346
F1216.0
aF549.0
aasg11
(lp347
(lp348
F1290.0
aF544.0
aa(lp349
F1313.0
aF544.0
aa(lp350
F1292.0
aF510.0
aassS'l2'
p351
(dp352
g5
(lp353
(lp354
F1146.0
aF727.0
aa(lp355
F1187.0
aF700.0
aa(lp356
F1184.0
aF744.0
aa(lp357
F1127.0
aF787.0
aasg11
(lp358
(lp359
F1168.0
aF736.0
aa(lp360
F1216.0
aF702.0
aa(lp361
F1192.0
aF752.0
aassS'l3'
p362
(dp363
g5
(lp364
(lp365
F1009.0
aF881.0
aa(lp366
F1080.0
aF823.0
aa(lp367
F1082.0
aF778.0
aa(lp368
F1008.0
aF817.0
aasg11
(lp369
(lp370
F1082.0
aF803.0
aa(lp371
F1082.0
aF823.0
aa(lp372
F1052.0
aF833.0
aassS'l1'
p373
(dp374
g5
(lp375
(lp376
F1276.0
aF625.0
aa(lp377
F1303.0
aF648.0
aa(lp378
F1306.0
aF611.0
aasg11
(lp379
(lp380
F1271.0
aF615.0
aa(lp381
F1290.0
aF641.0
aa(lp382
F1301.0
aF599.0
aassS'l8'
p383
(dp384
g5
(lp385
(lp386
F1164.0
aF512.0
aa(lp387
F1221.0
aF480.0
aa(lp388
F1232.0
aF394.0
aa(lp389
F1166.0
aF435.0
aasg11
(lp390
(lp391
F1217.0
aF487.0
aa(lp392
F1232.0
aF440.0
aa(lp393
F1184.0
aF472.0
aassS'l9'
p394
(dp395
g5
(lp396
(lp397
F1015.0
aF558.0
aa(lp398
F1105.0
aF490.0
aa(lp399
F1096.0
aF579.0
aa(lp400
F1018.0
aF641.0
aasg11
(lp401
(lp402
F1082.0
aF590.0
aa(lp403
F1080.0
aF547.0
aa(lp404
F1059.0
aF613.0
aasssS'r'
p405
(dp406
S'r4'
p407
(dp408
g5
(lp409
(lp410
F611.0
aF499.0
aa(lp411
F663.0
aF547.0
aa(lp412
F679.0
aF609.0
aa(lp413
F629.0
aF561.0
aasg11
(lp414
(lp415
F672.0
aF584.0
aa(lp416
F647.0
aF545.0
aa(lp417
F648.0
aF579.0
aassS'r5'
p418
(dp419
g5
(lp420
(lp421
F723.0
aF641.0
aa(lp422
F771.0
aF632.0
aa(lp423
F734.0
aF599.0
aa(lp424
F720.0
aF593.0
aa(lp425
F718.0
aF608.0
aasg11
(lp426
(lp427
F677.0
aF581.0
aa(lp428
F647.0
aF549.0
aa(lp429
F648.0
aF581.0
aassS'r6'
p430
(dp431
g5
(lp432
(lp433
F858.0
aF712.0
aa(lp434
F954.0
aF785.0
aa(lp435
F935.0
aF842.0
aa(lp436
F865.0
aF778.0
aasg11
(lp437
(lp438
F903.0
aF746.0
aa(lp439
F938.0
aF780.0
aa(lp440
F888.0
aF784.0
aassS'r7'
p441
(dp442
g5
(lp443
(lp444
F648.0
aF647.0
aa(lp445
F686.0
aF675.0
aa(lp446
F648.0
aF695.0
aasg11
(lp447
(lp448
F684.0
aF668.0
aa(lp449
F668.0
aF680.0
aa(lp450
F664.0
aF652.0
aassS'r1'
p451
(dp452
g5
(lp453
(lp454
F577.0
aF350.0
aa(lp455
F638.0
aF398.0
aa(lp456
F654.0
aF478.0
aa(lp457
F599.0
aF426.0
aasg11
(lp458
(lp459
F636.0
aF442.0
aa(lp460
F636.0
aF398.0
aa(lp461
F602.0
aF414.0
aassS'r2'
p462
(dp463
g5
(lp464
(lp465
F704.0
aF435.0
aa(lp466
F784.0
aF490.0
aa(lp467
F787.0
aF583.0
aa(lp468
F716.0
aF508.0
aasg11
(lp469
(lp470
F766.0
aF561.0
aa(lp471
F736.0
aF524.0
aa(lp472
F792.0
aF560.0
aassS'r3'
p473
(dp474
g5
(lp475
(lp476
F842.0
aF551.0
aa(lp477
F944.0
aF620.0
aa(lp478
F944.0
aF704.0
aa(lp479
F848.0
aF636.0
aasg11
(lp480
(lp481
F862.0
aF636.0
aa(lp482
F862.0
aF593.0
aa(lp483
F892.0
aF666.0
aassS'r8'
p484
(dp485
g5
(lp486
(lp487
F748.0
aF734.0
aa(lp488
F812.0
aF791.0
aa(lp489
F817.0
aF833.0
aa(lp490
F752.0
aF778.0
aasg11
(lp491
(lp492
F780.0
aF764.0
aa(lp493
F801.0
aF794.0
aa(lp494
F776.0
aF780.0
aassS'r9'
p495
(dp496
g5
(lp497
(lp498
F874.0
aF842.0
aa(lp499
F961.0
aF928.0
aa(lp500
F960.0
aF976.0
aa(lp501
F881.0
aF899.0
aasg11
(lp502
(lp503
F899.0
aF885.0
aa(lp504
F933.0
aF901.0
aa(lp505
F915.0
aF910.0
aasssS'u'
p506
(dp507
S'u9'
p508
(dp509
g5
(lp510
(lp511
F709.0
aF232.0
aa(lp512
F776.0
aF282.0
aa(lp513
F670.0
aF332.0
aa(lp514
F586.0
aF277.0
aasg11
(lp515
(lp516
F792.0
aF279.0
aa(lp517
F757.0
aF252.0
aa(lp518
F741.0
aF293.0
aassS'u8'
p519
(dp520
g5
(lp521
(lp522
F858.0
aF163.0
aa(lp523
F931.0
aF195.0
aa(lp524
F844.0
aF232.0
aa(lp525
F768.0
aF199.0
aasg11
(lp526
(lp527
F856.0
aF165.0
aa(lp528
F867.0
aF218.0
aa(lp529
F821.0
aF190.0
aassS'u5'
p530
(dp531
g5
(lp532
(lp533
F958.0
aF234.0
aa(lp534
F954.0
aF252.0
aa(lp535
F954.0
aF268.0
aa(lp536
F954.0
aF291.0
aa(lp537
F954.0
aF296.0
aa(lp538
F965.0
aF311.0
aa(lp539
F965.0
aF311.0
aa(lp540
F945.0
aF311.0
aa(lp541
F935.0
aF296.0
aa(lp542
F913.0
aF288.0
aa(lp543
F904.0
aF275.0
aa(lp544
F904.0
aF261.0
aa(lp545
F929.0
aF248.0
aasg11
(lp546
(lp547
F1096.0
aF216.0
aa(lp548
F1091.0
aF186.0
aa(lp549
F1141.0
aF224.0
aassS'u4'
p550
(dp551
g5
(lp552
(lp553
F1125.0
aF167.0
aa(lp554
F1232.0
aF202.0
aa(lp555
F1148.0
aF241.0
aa(lp556
F1052.0
aF197.0
aasg11
(lp557
(lp558
F1093.0
aF215.0
aa(lp559
F1089.0
aF186.0
aa(lp560
F1137.0
aF218.0
aassS'u7'
p561
(dp562
g5
(lp563
(lp564
F956.0
aF112.0
aa(lp565
F958.0
aF151.0
aa(lp566
F913.0
aF133.0
aasg11
(lp567
(lp568
F1041.0
aF120.0
aa(lp569
F1045.0
aF151.0
aa(lp570
F1061.0
aF140.0
aassS'u6'
p571
(dp572
g5
(lp573
(lp574
F837.0
aF314.0
aa(lp575
F928.0
aF369.0
aa(lp576
F826.0
aF432.0
aa(lp577
F718.0
aF357.0
aasg11
(lp578
(lp579
F855.0
aF353.0
aa(lp580
F862.0
aF378.0
aa(lp581
F826.0
aF376.0
aa(lp582
F826.0
aF359.0
aassS'u1'
p583
(dp584
g5
(lp585
(lp586
F1214.0
aF273.0
aa(lp587
F1280.0
aF234.0
aa(lp588
F1381.0
aF279.0
aa(lp589
F1313.0
aF334.0
aasg11
(lp590
(lp591
F1228.0
aF277.0
aa(lp592
F1258.0
aF250.0
aa(lp593
F1283.0
aF304.0
aassS'u3'
p594
(dp595
g5
(lp596
(lp597
F986.0
aF410.0
aa(lp598
F1102.0
aF481.0
aa(lp599
F988.0
aF560.0
aa(lp600
F860.0
aF483.0
aasg11
(lp601
(lp602
F983.0
aF453.0
aa(lp603
F1015.0
aF472.0
aa(lp604
F995.0
aF499.0
aa(lp605
F967.0
aF472.0
aassS'u2'
p606
(dp607
g5
(lp608
(lp609
F1143.0
aF320.0
aa(lp610
F1258.0
aF371.0
aa(lp611
F1162.0
aF442.0
aa(lp612
F1048.0
aF368.0
aasg11
(lp613
(lp614
F1120.0
aF325.0
aa(lp615
F1128.0
aF375.0
aa(lp616
F1155.0
aF328.0
aasss.