(dp0
S'b'
p1
(dp2
S'b4'
p3
(dp4
S'standard'
p5
(lp6
(lp7
F1029.0
aF814.0
aa(lp8
F1102.0
aF750.0
aa(lp9
F1096.0
aF785.0
aa(lp10
F1029.0
aF835.0
aasS'calibration'
p11
g6
ssS'b5'
p12
(dp13
g5
(lp14
(lp15
F1239.0
aF625.0
aa(lp16
F1256.0
aF641.0
aa(lp17
F1265.0
aF616.0
aasg11
(lp18
(lp19
F1335.0
aF551.0
aa(lp20
F1328.0
aF600.0
aa(lp21
F1354.0
aF586.0
aa(lp22
F1368.0
aF542.0
aassS'b6'
p23
(dp24
g5
(lp25
(lp26
F1336.0
aF558.0
aa(lp27
F1372.0
aF531.0
aa(lp28
F1352.0
aF581.0
aa(lp29
F1320.0
aF602.0
aasg11
g25
ssS'b7'
p30
(dp31
g5
(lp32
(lp33
F1036.0
aF912.0
aa(lp34
F1093.0
aF864.0
aa(lp35
F1084.0
aF896.0
aa(lp36
F1032.0
aF944.0
aasg11
g32
ssS'b1'
p37
(dp38
g5
(lp39
(lp40
F1031.0
aF652.0
aa(lp41
F1105.0
aF595.0
aa(lp42
F1098.0
aF631.0
aa(lp43
F1034.0
aF695.0
aasg11
g39
ssS'b2'
p44
(dp45
g5
(lp46
(lp47
F1214.0
aF519.0
aa(lp48
F1269.0
aF472.0
aa(lp49
F1262.0
aF512.0
aa(lp50
F1212.0
aF560.0
aasg11
g46
ssS'b3'
p51
(dp52
g5
(lp53
(lp54
F1404.0
aF387.0
aa(lp55
F1400.0
aF428.0
aa(lp56
F1352.0
aF464.0
aa(lp57
F1352.0
aF416.0
aasg11
g53
ssS'b8'
p58
(dp59
g5
(lp60
(lp61
F1175.0
aF794.0
aa(lp62
F1214.0
aF762.0
aa(lp63
F1216.0
aF785.0
aa(lp64
F1182.0
aF814.0
aasg11
g60
ssS'b9'
p65
(dp66
g5
(lp67
(lp68
F1315.0
aF684.0
aa(lp69
F1328.0
aF691.0
aa(lp70
F1333.0
aF661.0
aasg11
g67
sssS'd'
p71
(dp72
S'd8'
p73
(dp74
g5
(lp75
(lp76
F1064.0
aF193.0
aa(lp77
F1098.0
aF168.0
aa(lp78
F1148.0
aF202.0
aa(lp79
F1111.0
aF213.0
aasg11
g75
ssS'd9'
p80
(dp81
g5
(lp82
(lp83
F938.0
aF128.0
aa(lp84
F938.0
aF145.0
aa(lp85
F924.0
aF140.0
aasg11
g82
ssS'd6'
p86
(dp87
g5
(lp88
(lp89
F800.0
aF204.0
aa(lp90
F849.0
aF181.0
aa(lp91
F874.0
aF190.0
aa(lp92
F846.0
aF218.0
aasg11
g88
ssS'd7'
p93
(dp94
g5
(lp95
(lp96
F1240.0
aF240.0
aa(lp97
F1296.0
aF266.0
aa(lp98
F1256.0
aF284.0
aa(lp99
F1216.0
aF259.0
aasg11
g95
ssS'd4'
p100
(dp101
g5
(lp102
(lp103
F1123.0
aF362.0
aa(lp104
F1187.0
aF341.0
aa(lp105
F1134.0
aF321.0
aa(lp106
F1089.0
aF346.0
aasg11
g102
ssS'd5'
p107
(dp108
g5
(lp109
(lp110
F924.0
aF257.0
aa(lp111
F926.0
aF280.0
aa(lp112
F906.0
aF270.0
aasg11
(lp113
(lp114
F848.0
aF222.0
aa(lp115
F881.0
aF202.0
aa(lp116
F844.0
aF181.0
aa(lp117
F798.0
aF200.0
aassS'd2'
p118
(dp119
g5
(lp120
(lp121
F842.0
aF321.0
aa(lp122
F871.0
aF343.0
aa(lp123
F832.0
aF373.0
aa(lp124
F798.0
aF343.0
aasg11
g120
ssS'd3'
p125
(dp126
g5
(lp127
(lp128
F712.0
aF250.0
aa(lp129
F748.0
aF270.0
aa(lp130
F696.0
aF293.0
aa(lp131
F652.0
aF275.0
aasg11
g127
ssS'd1'
p132
(dp133
g5
(lp134
(lp135
F983.0
aF416.0
aa(lp136
F1020.0
aF444.0
aa(lp137
F979.0
aF465.0
aa(lp138
F958.0
aF444.0
aasg11
g134
sssS'f'
p139
(dp140
S'f1'
p141
(dp142
g5
(lp143
(lp144
F892.0
aF803.0
aa(lp145
F954.0
aF853.0
aa(lp146
F936.0
aF869.0
aa(lp147
F896.0
aF826.0
aasg11
g143
ssS'f2'
p148
(dp149
g5
(lp150
(lp151
F782.0
aF718.0
aa(lp152
F814.0
aF759.0
aa(lp153
F819.0
aF773.0
aa(lp154
F776.0
aF741.0
aasg11
g150
ssS'f3'
p155
(dp156
g5
(lp157
(lp158
F677.0
aF640.0
aa(lp159
F688.0
aF634.0
aa(lp160
F670.0
aF616.0
aasg11
g157
ssS'f4'
p161
(dp162
g5
(lp163
(lp164
F874.0
aF680.0
aa(lp165
F926.0
aF728.0
aa(lp166
F926.0
aF760.0
aa(lp167
F880.0
aF709.0
aasg11
g163
ssS'f5'
p168
(dp169
g5
(lp170
(lp171
F746.0
aF588.0
aa(lp172
F760.0
aF577.0
aa(lp173
F741.0
aF572.0
aasg11
(lp174
(lp175
F689.0
aF563.0
aa(lp176
F682.0
aF535.0
aa(lp177
F650.0
aF512.0
aa(lp178
F654.0
aF542.0
aassS'f6'
p179
(dp180
g5
(lp181
(lp182
F648.0
aF504.0
aa(lp183
F679.0
aF531.0
aa(lp184
F688.0
aF568.0
aa(lp185
F656.0
aF542.0
aasg11
g181
ssS'f7'
p186
(dp187
g5
(lp188
(lp189
F871.0
aF542.0
aa(lp190
F913.0
aF572.0
aa(lp191
F920.0
aF620.0
aa(lp192
F869.0
aF592.0
aasg11
g188
ssS'f8'
p193
(dp194
g5
(lp195
(lp196
F728.0
aF440.0
aa(lp197
F776.0
aF471.0
aa(lp198
F794.0
aF513.0
aa(lp199
F741.0
aF488.0
aasg11
g195
ssS'f9'
p200
(dp201
g5
(lp202
(lp203
F629.0
aF410.0
aa(lp204
F622.0
aF355.0
aa(lp205
F645.0
aF375.0
aa(lp206
F650.0
aF407.0
aasg11
g202
sssS'l'
p207
(dp208
S'l6'
p209
(dp210
g5
(lp211
(lp212
F1022.0
aF736.0
aa(lp213
F1073.0
aF693.0
aa(lp214
F1073.0
aF725.0
aa(lp215
F1024.0
aF762.0
aasg11
g211
ssS'l7'
p216
(dp217
g5
(lp218
(lp219
F1313.0
aF382.0
aa(lp220
F1336.0
aF357.0
aa(lp221
F1331.0
aF396.0
aa(lp222
F1299.0
aF419.0
aasg11
g218
ssS'l4'
p223
(dp224
g5
(lp225
(lp226
F1287.0
aF529.0
aa(lp227
F1317.0
aF508.0
aa(lp228
F1310.0
aF540.0
aa(lp229
F1280.0
aF563.0
aasg11
g225
ssS'l5'
p230
(dp231
g5
(lp232
(lp233
F1207.0
aF576.0
aa(lp234
F1223.0
aF586.0
aa(lp235
F1221.0
aF565.0
aasg11
(lp236
(lp237
F1176.0
aF513.0
aa(lp238
F1228.0
aF485.0
aa(lp239
F1223.0
aF444.0
aa(lp240
F1175.0
aF476.0
aassS'l2'
p241
(dp242
g5
(lp243
(lp244
F1152.0
aF748.0
aa(lp245
F1196.0
aF720.0
aa(lp246
F1192.0
aF739.0
aa(lp247
F1152.0
aF778.0
aasg11
g243
ssS'l3'
p248
(dp249
g5
(lp250
(lp251
F1029.0
aF860.0
aa(lp252
F1075.0
aF812.0
aa(lp253
F1080.0
aF835.0
aa(lp254
F1031.0
aF880.0
aasg11
g250
ssS'l1'
p255
(dp256
g5
(lp257
(lp258
F1283.0
aF638.0
aa(lp259
F1299.0
aF640.0
aa(lp260
F1297.0
aF616.0
aasg11
g257
ssS'l8'
p261
(dp262
g5
(lp263
(lp264
F1175.0
aF472.0
aa(lp265
F1224.0
aF439.0
aa(lp266
F1228.0
aF476.0
aa(lp267
F1178.0
aF513.0
aasg11
g263
ssS'l9'
p268
(dp269
g5
(lp270
(lp271
F1029.0
aF579.0
aa(lp272
F1091.0
aF540.0
aa(lp273
F1079.0
aF579.0
aa(lp274
F1041.0
aF629.0
aasg11
g270
sssS'r'
p275
(dp276
S'r4'
p277
(dp278
g5
(lp279
(lp280
F627.0
aF528.0
aa(lp281
F654.0
aF549.0
aa(lp282
F664.0
aF586.0
aa(lp283
F632.0
aF556.0
aasg11
g279
ssS'r5'
p284
(dp285
g5
(lp286
(lp287
F725.0
aF629.0
aa(lp288
F739.0
aF620.0
aa(lp289
F720.0
aF611.0
aasg11
(lp290
(lp291
F627.0
aF526.0
aa(lp292
F652.0
aF551.0
aa(lp293
F654.0
aF576.0
aa(lp294
F631.0
aF561.0
aassS'r6'
p295
(dp296
g5
(lp297
(lp298
F867.0
aF741.0
aa(lp299
F931.0
aF805.0
aa(lp300
F929.0
aF833.0
aa(lp301
F874.0
aF773.0
aasg11
g297
ssS'r7'
p302
(dp303
g5
(lp304
(lp305
F657.0
aF650.0
aa(lp306
F684.0
aF675.0
aa(lp307
F663.0
aF679.0
aasg11
g304
ssS'r1'
p308
(dp309
g5
(lp310
(lp311
F592.0
aF368.0
aa(lp312
F624.0
aF394.0
aa(lp313
F634.0
aF446.0
aa(lp314
F600.0
aF414.0
aasg11
g310
ssS'r2'
p315
(dp316
g5
(lp317
(lp318
F705.0
aF460.0
aa(lp319
F768.0
aF512.0
aa(lp320
F768.0
aF552.0
aa(lp321
F712.0
aF501.0
aasg11
g317
ssS'r3'
p322
(dp323
g5
(lp324
(lp325
F848.0
aF593.0
aa(lp326
F926.0
aF656.0
aa(lp327
F924.0
aF689.0
aa(lp328
F853.0
aF636.0
aasg11
g324
ssS'r8'
p329
(dp330
g5
(lp331
(lp332
F757.0
aF746.0
aa(lp333
F796.0
aF792.0
aa(lp334
F801.0
aF814.0
aa(lp335
F768.0
aF778.0
aasg11
g331
ssS'r9'
p336
(dp337
g5
(lp338
(lp339
F881.0
aF862.0
aa(lp340
F945.0
aF928.0
aa(lp341
F940.0
aF940.0
aa(lp342
F881.0
aF883.0
aasg11
g338
sssS'u'
p343
(dp344
S'u9'
p345
(dp346
g5
(lp347
(lp348
F702.0
aF248.0
aa(lp349
F730.0
aF273.0
aa(lp350
F680.0
aF295.0
aa(lp351
F659.0
aF275.0
aasg11
g347
ssS'u8'
p352
(dp353
g5
(lp354
(lp355
F860.0
aF165.0
aa(lp356
F885.0
aF183.0
aa(lp357
F832.0
aF213.0
aa(lp358
F814.0
aF188.0
aasg11
g354
ssS'u5'
p359
(dp360
g5
(lp361
(lp362
F935.0
aF256.0
aa(lp363
F935.0
aF288.0
aa(lp364
F915.0
aF268.0
aasg11
(lp365
(lp366
F846.0
aF215.0
aa(lp367
F880.0
aF190.0
aa(lp368
F856.0
aF179.0
aa(lp369
F832.0
aF190.0
aassS'u4'
p370
(dp371
g5
(lp372
(lp373
F1139.0
aF161.0
aa(lp374
F1201.0
aF199.0
aa(lp375
F1160.0
aF213.0
aa(lp376
F1105.0
aF183.0
aasg11
g372
ssS'u7'
p377
(dp378
g5
(lp379
(lp380
F952.0
aF103.0
aa(lp381
F947.0
aF126.0
aa(lp382
F928.0
aF117.0
aasg11
g379
ssS'u6'
p383
(dp384
g5
(lp385
(lp386
F766.0
aF355.0
aa(lp387
F826.0
aF325.0
aa(lp388
F887.0
aF368.0
aa(lp389
F824.0
aF398.0
aasg11
g385
ssS'u1'
p390
(dp391
g5
(lp392
(lp393
F1304.0
aF247.0
aa(lp394
F1386.0
aF286.0
aa(lp395
F1328.0
aF307.0
aa(lp396
F1262.0
aF275.0
aasg11
g392
ssS'u3'
p397
(dp398
g5
(lp399
(lp400
F983.0
aF439.0
aa(lp401
F1029.0
aF478.0
aa(lp402
F984.0
aF519.0
aa(lp403
F924.0
aF480.0
aasg11
g399
ssS'u2'
p404
(dp405
g5
(lp406
(lp407
F1093.0
aF366.0
aa(lp408
F1153.0
aF336.0
aa(lp409
F1207.0
aF362.0
aa(lp410
F1153.0
aF410.0
aasg11
g406
sss.