(dp0
S'b'
p1
(dp2
S'b4'
p3
(dp4
S'standard'
p5
(lp6
(lp7
F1029.0
aF814.0
aa(lp8
F1102.0
aF750.0
aa(lp9
F1096.0
aF785.0
aa(lp10
F1029.0
aF835.0
aasS'calibration'
p11
(lp12
(lp13
F1137.0
aF741.0
aa(lp14
F1111.0
aF730.0
aa(lp15
F1105.0
aF782.0
aassS'b5'
p16
(dp17
g5
(lp18
(lp19
F1239.0
aF625.0
aa(lp20
F1256.0
aF641.0
aa(lp21
F1265.0
aF616.0
aasg11
(lp22
(lp23
F1095.0
aF743.0
aa(lp24
F1098.0
aF789.0
aa(lp25
F1123.0
aF759.0
aassS'b6'
p26
(dp27
g5
(lp28
(lp29
F1336.0
aF558.0
aa(lp30
F1372.0
aF531.0
aa(lp31
F1352.0
aF581.0
aa(lp32
F1320.0
aF602.0
aasg11
(lp33
(lp34
F1312.0
aF595.0
aa(lp35
F1329.0
aF560.0
aa(lp36
F1331.0
aF604.0
aassS'b7'
p37
(dp38
g5
(lp39
(lp40
F1036.0
aF912.0
aa(lp41
F1093.0
aF864.0
aa(lp42
F1084.0
aF896.0
aa(lp43
F1032.0
aF944.0
aasg11
(lp44
(lp45
F1125.0
aF840.0
aa(lp46
F1093.0
aF865.0
aa(lp47
F1120.0
aF878.0
aassS'b1'
p48
(dp49
g5
(lp50
(lp51
F1031.0
aF652.0
aa(lp52
F1105.0
aF595.0
aa(lp53
F1098.0
aF631.0
aa(lp54
F1034.0
aF695.0
aasg11
(lp55
(lp56
F1121.0
aF632.0
aa(lp57
F1118.0
aF579.0
aa(lp58
F1080.0
aF647.0
aassS'b2'
p59
(dp60
g5
(lp61
(lp62
F1214.0
aF519.0
aa(lp63
F1269.0
aF472.0
aa(lp64
F1262.0
aF512.0
aa(lp65
F1212.0
aF560.0
aasg11
(lp66
(lp67
F1224.0
aF570.0
aa(lp68
F1248.0
aF522.0
aa(lp69
F1205.0
aF547.0
aassS'b3'
p70
(dp71
g5
(lp72
(lp73
F1404.0
aF387.0
aa(lp74
F1400.0
aF428.0
aa(lp75
F1352.0
aF464.0
aa(lp76
F1352.0
aF416.0
aasg11
(lp77
(lp78
F1376.0
aF442.0
aa(lp79
F1402.0
aF419.0
aa(lp80
F1392.0
aF407.0
aassS'b8'
p81
(dp82
g5
(lp83
(lp84
F1175.0
aF794.0
aa(lp85
F1214.0
aF762.0
aa(lp86
F1216.0
aF785.0
aa(lp87
F1182.0
aF814.0
aasg11
(lp88
(lp89
F1205.0
aF760.0
aa(lp90
F1191.0
aF796.0
aa(lp91
F1226.0
aF760.0
aassS'b9'
p92
(dp93
g5
(lp94
(lp95
F1315.0
aF684.0
aa(lp96
F1328.0
aF691.0
aa(lp97
F1333.0
aF661.0
aasg11
(lp98
(lp99
F1319.0
aF670.0
aa(lp100
F1338.0
aF682.0
aa(lp101
F1342.0
aF647.0
aasssS'd'
p102
(dp103
S'd8'
p104
(dp105
g5
(lp106
(lp107
F1096.0
aF168.0
aa(lp108
F1175.0
aF204.0
aa(lp109
F1128.0
aF231.0
aa(lp110
F1088.0
aF222.0
aa(lp111
F1052.0
aF197.0
aasg11
(lp112
(lp113
F1132.0
aF188.0
aa(lp114
F1168.0
aF199.0
aa(lp115
F1123.0
aF211.0
aassS'd9'
p116
(dp117
g5
(lp118
(lp119
F1031.0
aF135.0
aa(lp120
F1029.0
aF160.0
aa(lp121
F1052.0
aF145.0
aasg11
(lp122
(lp123
F938.0
aF138.0
aa(lp124
F938.0
aF152.0
aa(lp125
F926.0
aF145.0
aassS'd6'
p126
(dp127
g5
(lp128
(lp129
F869.0
aF167.0
aa(lp130
F926.0
aF197.0
aa(lp131
F853.0
aF231.0
aa(lp132
F798.0
aF199.0
aasg11
(lp133
(lp134
F881.0
aF174.0
aa(lp135
F871.0
aF193.0
aa(lp136
F908.0
aF200.0
aassS'd7'
p137
(dp138
g5
(lp139
(lp140
F1184.0
aF268.0
aa(lp141
F1249.0
aF232.0
aa(lp142
F1326.0
aF264.0
aa(lp143
F1276.0
aF305.0
aasg11
(lp144
(lp145
F1265.0
aF263.0
aa(lp146
F1313.0
aF280.0
aa(lp147
F1271.0
aF293.0
aassS'd4'
p148
(dp149
g5
(lp150
(lp151
F1141.0
aF311.0
aa(lp152
F1212.0
aF348.0
aa(lp153
F1146.0
aF408.0
aa(lp154
F1073.0
aF362.0
aasg11
(lp155
(lp156
F1137.0
aF330.0
aa(lp157
F1191.0
aF353.0
aa(lp158
F1146.0
aF371.0
aassS'd5'
p159
(dp160
g5
(lp161
(lp162
F951.0
aF254.0
aa(lp163
F947.0
aF280.0
aa(lp164
F929.0
aF264.0
aasg11
(lp165
(lp166
F881.0
aF179.0
aa(lp167
F903.0
aF202.0
aa(lp168
F876.0
aF204.0
aassS'd2'
p169
(dp170
g5
(lp171
(lp172
F846.0
aF325.0
aa(lp173
F912.0
aF359.0
aa(lp174
F839.0
aF401.0
aa(lp175
F760.0
aF364.0
aasg11
(lp176
(lp177
F837.0
aF332.0
aa(lp178
F872.0
aF343.0
aa(lp179
F839.0
aF357.0
aassS'd3'
p180
(dp181
g5
(lp182
(lp183
F727.0
aF229.0
aa(lp184
F792.0
aF272.0
aa(lp185
F705.0
aF311.0
aa(lp186
F632.0
aF275.0
aasg11
(lp187
(lp188
F737.0
aF240.0
aa(lp189
F766.0
aF261.0
aa(lp190
F721.0
aF282.0
aa(lp191
F696.0
aF261.0
aassS'd1'
p192
(dp193
g5
(lp194
(lp195
F988.0
aF400.0
aa(lp196
F1070.0
aF448.0
aa(lp197
F981.0
aF492.0
aa(lp198
F917.0
aF444.0
aasg11
(lp199
(lp200
F1020.0
aF424.0
aa(lp201
F1047.0
aF430.0
aa(lp202
F1015.0
aF446.0
aasssS'f'
p203
(dp204
S'f1'
p205
(dp206
g5
(lp207
(lp208
F894.0
aF801.0
aa(lp209
F961.0
aF860.0
aa(lp210
F961.0
aF904.0
aa(lp211
F896.0
aF858.0
aasg11
(lp212
(lp213
F908.0
aF807.0
aa(lp214
F947.0
aF835.0
aa(lp215
F931.0
aF851.0
aassS'f2'
p216
(dp217
g5
(lp218
(lp219
F773.0
aF712.0
aa(lp220
F835.0
aF760.0
aa(lp221
F835.0
aF798.0
aa(lp222
F780.0
aF753.0
aasg11
(lp223
(lp224
F791.0
aF728.0
aa(lp225
F814.0
aF741.0
aa(lp226
F808.0
aF766.0
aassS'f3'
p227
(dp228
g5
(lp229
(lp230
F689.0
aF654.0
aa(lp231
F700.0
aF647.0
aa(lp232
F688.0
aF632.0
aasg11
(lp233
(lp234
F673.0
aF629.0
aa(lp235
F698.0
aF647.0
aa(lp236
F682.0
aF659.0
aassS'f4'
p237
(dp238
g5
(lp239
(lp240
F887.0
aF679.0
aa(lp241
F945.0
aF727.0
aa(lp242
F951.0
aF782.0
aa(lp243
F888.0
aF739.0
aasg11
(lp244
(lp245
F899.0
aF695.0
aa(lp246
F940.0
aF709.0
aa(lp247
F928.0
aF739.0
aassS'f5'
p248
(dp249
g5
(lp250
(lp251
F746.0
aF615.0
aa(lp252
F780.0
aF600.0
aa(lp253
F746.0
aF581.0
aasg11
(lp254
(lp255
F657.0
aF512.0
aa(lp256
F691.0
aF524.0
aa(lp257
F682.0
aF560.0
aassS'f6'
p258
(dp259
g5
(lp260
(lp261
F705.0
aF597.0
aa(lp262
F684.0
aF522.0
aa(lp263
F638.0
aF480.0
aa(lp264
F638.0
aF535.0
aasg11
(lp265
(lp266
F657.0
aF513.0
aa(lp267
F693.0
aF529.0
aa(lp268
F689.0
aF549.0
aassS'f7'
p269
(dp270
g5
(lp271
(lp272
F869.0
aF599.0
aa(lp273
F860.0
aF513.0
aa(lp274
F944.0
aF583.0
aa(lp275
F952.0
aF656.0
aasg11
(lp276
(lp277
F869.0
aF579.0
aa(lp278
F872.0
aF551.0
aa(lp279
F908.0
aF609.0
aassS'f8'
p280
(dp281
g5
(lp282
(lp283
F739.0
aF499.0
aa(lp284
F814.0
aF554.0
aa(lp285
F807.0
aF471.0
aa(lp286
F728.0
aF432.0
aasg11
(lp287
(lp288
F768.0
aF517.0
aa(lp289
F752.0
aF483.0
aa(lp290
F791.0
aF503.0
aassS'f9'
p291
(dp292
g5
(lp293
(lp294
F627.0
aF410.0
aa(lp295
F688.0
aF451.0
aa(lp296
F670.0
aF369.0
aa(lp297
F618.0
aF346.0
aasg11
(lp298
(lp299
F682.0
aF444.0
aa(lp300
F641.0
aF417.0
aa(lp301
F670.0
aF408.0
aasssS'l'
p302
(dp303
S'l6'
p304
(dp305
g5
(lp306
(lp307
F1027.0
aF734.0
aa(lp308
F1107.0
aF675.0
aa(lp309
F1104.0
aF732.0
aa(lp310
F1029.0
aF801.0
aasg11
(lp311
(lp312
F1068.0
aF734.0
aa(lp313
F1091.0
aF718.0
aa(lp314
F1070.0
aF705.0
aassS'l7'
p315
(dp316
g5
(lp317
(lp318
F1306.0
aF364.0
aa(lp319
F1299.0
aF439.0
aa(lp320
F1345.0
aF408.0
aa(lp321
F1367.0
aF332.0
aasg11
(lp322
(lp323
F1328.0
aF435.0
aa(lp324
F1351.0
aF417.0
aa(lp325
F1333.0
aF396.0
aassS'l4'
p326
(dp327
g5
(lp328
(lp329
F1296.0
aF515.0
aa(lp330
F1352.0
aF485.0
aa(lp331
F1338.0
aF536.0
aa(lp332
F1301.0
aF556.0
aasg11
(lp333
(lp334
F1297.0
aF533.0
aa(lp335
F1322.0
aF515.0
aa(lp336
F1313.0
aF549.0
aassS'l5'
p337
(dp338
g5
(lp339
(lp340
F1214.0
aF584.0
aa(lp341
F1235.0
aF606.0
aa(lp342
F1237.0
aF581.0
aasg11
(lp343
(lp344
F1207.0
aF528.0
aa(lp345
F1221.0
aF497.0
aa(lp346
F1207.0
aF485.0
aassS'l2'
p347
(dp348
g5
(lp349
(lp350
F1168.0
aF746.0
aa(lp351
F1208.0
aF712.0
aa(lp352
F1205.0
aF744.0
aa(lp353
F1168.0
aF773.0
aasg11
(lp354
(lp355
F1176.0
aF748.0
aa(lp356
F1191.0
aF728.0
aa(lp357
F1196.0
aF743.0
aassS'l3'
p358
(dp359
g5
(lp360
(lp361
F1034.0
aF860.0
aa(lp362
F1091.0
aF817.0
aa(lp363
F1080.0
aF851.0
aa(lp364
F1036.0
aF904.0
aasg11
(lp365
(lp366
F1048.0
aF851.0
aa(lp367
F1082.0
aF819.0
aa(lp368
F1086.0
aF853.0
aassS'l1'
p369
(dp370
g5
(lp371
(lp372
F1283.0
aF634.0
aa(lp373
F1312.0
aF604.0
aa(lp374
F1304.0
aF647.0
aasg11
(lp375
(lp376
F1290.0
aF645.0
aa(lp377
F1304.0
aF657.0
aa(lp378
F1304.0
aF631.0
aassS'l8'
p379
(dp380
g5
(lp381
(lp382
F1178.0
aF464.0
aa(lp383
F1253.0
aF419.0
aa(lp384
F1242.0
aF497.0
aa(lp385
F1214.0
aF524.0
aa(lp386
F1189.0
aF544.0
aa(lp387
F1175.0
aF545.0
aasg11
(lp388
(lp389
F1198.0
aF519.0
aa(lp390
F1226.0
aF487.0
aa(lp391
F1198.0
aF478.0
aassS'l9'
p392
(dp393
g5
(lp394
(lp395
F1025.0
aF581.0
aa(lp396
F1120.0
aF517.0
aa(lp397
F1107.0
aF609.0
aa(lp398
F1027.0
aF664.0
aasg11
(lp399
(lp400
F1032.0
aF625.0
aa(lp401
F1064.0
aF600.0
aa(lp402
F1050.0
aF586.0
aasssS'r'
p403
(dp404
S'r4'
p405
(dp406
g5
(lp407
(lp408
F620.0
aF503.0
aa(lp409
F663.0
aF536.0
aa(lp410
F679.0
aF579.0
aa(lp411
F634.0
aF554.0
aasg11
(lp412
(lp413
F645.0
aF536.0
aa(lp414
F666.0
aF542.0
aa(lp415
F670.0
aF568.0
aassS'r5'
p416
(dp417
g5
(lp418
(lp419
F734.0
aF622.0
aa(lp420
F760.0
aF611.0
aa(lp421
F732.0
aF586.0
aasg11
(lp422
(lp423
F666.0
aF576.0
aa(lp424
F670.0
aF542.0
aa(lp425
F647.0
aF536.0
aassS'r6'
p426
(dp427
g5
(lp428
(lp429
F881.0
aF714.0
aa(lp430
F936.0
aF760.0
aa(lp431
F931.0
aF807.0
aa(lp432
F871.0
aF757.0
aasg11
(lp433
(lp434
F888.0
aF730.0
aa(lp435
F942.0
aF764.0
aa(lp436
F919.0
aF785.0
aassS'r7'
p437
(dp438
g5
(lp439
(lp440
F664.0
aF641.0
aa(lp441
F698.0
aF663.0
aa(lp442
F673.0
aF677.0
aasg11
(lp443
(lp444
F673.0
aF673.0
aa(lp445
F686.0
aF664.0
aa(lp446
F670.0
aF652.0
aassS'r1'
p447
(dp448
g5
(lp449
(lp450
F604.0
aF364.0
aa(lp451
F647.0
aF394.0
aa(lp452
F648.0
aF442.0
aa(lp453
F606.0
aF408.0
aasg11
(lp454
(lp455
F611.0
aF371.0
aa(lp456
F650.0
aF389.0
aa(lp457
F627.0
aF408.0
aassS'r2'
p458
(dp459
g5
(lp460
(lp461
F720.0
aF487.0
aa(lp462
F768.0
aF520.0
aa(lp463
F755.0
aF458.0
aa(lp464
F704.0
aF435.0
aasg11
(lp465
(lp466
F730.0
aF472.0
aa(lp467
F768.0
aF490.0
aa(lp468
F752.0
aF512.0
aassS'r3'
p469
(dp470
g5
(lp471
(lp472
F862.0
aF538.0
aa(lp473
F926.0
aF590.0
aa(lp474
F924.0
aF640.0
aa(lp475
F865.0
aF599.0
aasg11
(lp476
(lp477
F912.0
aF608.0
aa(lp478
F926.0
aF663.0
aa(lp479
F897.0
aF632.0
aassS'r8'
p480
(dp481
g5
(lp482
(lp483
F773.0
aF746.0
aa(lp484
F816.0
aF785.0
aa(lp485
F810.0
aF819.0
aa(lp486
F780.0
aF789.0
aasg11
(lp487
(lp488
F791.0
aF757.0
aa(lp489
F814.0
aF771.0
aa(lp490
F801.0
aF787.0
aassS'r9'
p491
(dp492
g5
(lp493
(lp494
F892.0
aF856.0
aa(lp495
F963.0
aF922.0
aa(lp496
F963.0
aF952.0
aa(lp497
F899.0
aF899.0
aasg11
(lp498
(lp499
F885.0
aF860.0
aa(lp500
F912.0
aF887.0
aa(lp501
F924.0
aF924.0
aasssS'u'
p502
(dp503
S'u9'
p504
(dp505
g5
(lp506
(lp507
F712.0
aF232.0
aa(lp508
F748.0
aF264.0
aa(lp509
F666.0
aF314.0
aa(lp510
F600.0
aF264.0
aasg11
(lp511
(lp512
F714.0
aF243.0
aa(lp513
F739.0
aF254.0
aa(lp514
F709.0
aF266.0
aa(lp515
F691.0
aF252.0
aassS'u8'
p516
(dp517
g5
(lp518
(lp519
F835.0
aF216.0
aa(lp520
F935.0
aF177.0
aa(lp521
F869.0
aF140.0
aa(lp522
F808.0
aF172.0
aasg11
(lp523
(lp524
F840.0
aF181.0
aa(lp525
F871.0
aF163.0
aa(lp526
F904.0
aF174.0
aa(lp527
F872.0
aF188.0
aassS'u5'
p528
(dp529
g5
(lp530
(lp531
F940.0
aF240.0
aa(lp532
F1061.0
aF247.0
aa(lp533
F1075.0
aF275.0
aa(lp534
F1040.0
aF291.0
aa(lp535
F1009.0
aF311.0
aa(lp536
F972.0
aF304.0
aa(lp537
F951.0
aF282.0
aa(lp538
F926.0
aF270.0
aasg11
(lp539
(lp540
F855.0
aF339.0
aa(lp541
F874.0
aF362.0
aa(lp542
F828.0
aF369.0
aassS'u4'
p543
(dp544
g5
(lp545
(lp546
F1080.0
aF183.0
aa(lp547
F1152.0
aF231.0
aa(lp548
F1223.0
aF197.0
aa(lp549
F1143.0
aF156.0
aasg11
(lp550
(lp551
F1152.0
aF172.0
aa(lp552
F1176.0
aF186.0
aa(lp553
F1128.0
aF202.0
aassS'u7'
p554
(dp555
g5
(lp556
(lp557
F1052.0
aF101.0
aa(lp558
F1082.0
aF119.0
aa(lp559
F1056.0
aF136.0
aasg11
(lp560
(lp561
F1052.0
aF112.0
aa(lp562
F1052.0
aF140.0
aa(lp563
F1080.0
aF126.0
aassS'u6'
p564
(dp565
g5
(lp566
(lp567
F828.0
aF309.0
aa(lp568
F894.0
aF355.0
aa(lp569
F807.0
aF400.0
aa(lp570
F752.0
aF352.0
aasg11
(lp571
(lp572
F858.0
aF343.0
aa(lp573
F872.0
aF362.0
aa(lp574
F833.0
aF366.0
aassS'u1'
p575
(dp576
g5
(lp577
(lp578
F1303.0
aF224.0
aa(lp579
F1253.0
aF272.0
aa(lp580
F1310.0
aF323.0
aa(lp581
F1408.0
aF284.0
aasg11
(lp582
(lp583
F1308.0
aF254.0
aa(lp584
F1340.0
aF268.0
aa(lp585
F1304.0
aF275.0
aassS'u3'
p586
(dp587
g5
(lp588
(lp589
F983.0
aF396.0
aa(lp590
F1082.0
aF448.0
aa(lp591
F976.0
aF512.0
aa(lp592
F899.0
aF458.0
aasg11
(lp593
(lp594
F977.0
aF439.0
aa(lp595
F1018.0
aF455.0
aa(lp596
F961.0
aF471.0
aassS'u2'
p597
(dp598
g5
(lp599
(lp600
F1080.0
aF362.0
aa(lp601
F1152.0
aF316.0
aa(lp602
F1253.0
aF366.0
aa(lp603
F1166.0
aF414.0
aasg11
(lp604
(lp605
F1162.0
aF343.0
aa(lp606
F1200.0
aF350.0
aa(lp607
F1168.0
aF373.0
aasss.