(dp0
S'b'
p1
(dp2
S'b4'
p3
(dp4
S'standard'
p5
(lp6
(lp7
F1029.0
aF814.0
aa(lp8
F1102.0
aF750.0
aa(lp9
F1096.0
aF785.0
aa(lp10
F1029.0
aF835.0
aasS'calibration'
p11
g6
ssS'b5'
p12
(dp13
g5
(lp14
(lp15
F1239.0
aF625.0
aa(lp16
F1256.0
aF641.0
aa(lp17
F1265.0
aF616.0
aasg11
(lp18
(lp19
F1335.0
aF551.0
aa(lp20
F1328.0
aF600.0
aa(lp21
F1354.0
aF586.0
aa(lp22
F1368.0
aF542.0
aassS'b6'
p23
(dp24
g5
(lp25
(lp26
F1336.0
aF558.0
aa(lp27
F1372.0
aF531.0
aa(lp28
F1352.0
aF581.0
aa(lp29
F1320.0
aF602.0
aasg11
g25
ssS'b7'
p30
(dp31
g5
(lp32
(lp33
F1036.0
aF912.0
aa(lp34
F1093.0
aF864.0
aa(lp35
F1084.0
aF896.0
aa(lp36
F1032.0
aF944.0
aasg11
g32
ssS'b1'
p37
(dp38
g5
(lp39
(lp40
F1031.0
aF652.0
aa(lp41
F1105.0
aF595.0
aa(lp42
F1098.0
aF631.0
aa(lp43
F1034.0
aF695.0
aasg11
g39
ssS'b2'
p44
(dp45
g5
(lp46
(lp47
F1214.0
aF519.0
aa(lp48
F1269.0
aF472.0
aa(lp49
F1262.0
aF512.0
aa(lp50
F1212.0
aF560.0
aasg11
g46
ssS'b3'
p51
(dp52
g5
(lp53
(lp54
F1404.0
aF387.0
aa(lp55
F1400.0
aF428.0
aa(lp56
F1352.0
aF464.0
aa(lp57
F1352.0
aF416.0
aasg11
g53
ssS'b8'
p58
(dp59
g5
(lp60
(lp61
F1175.0
aF794.0
aa(lp62
F1214.0
aF762.0
aa(lp63
F1216.0
aF785.0
aa(lp64
F1182.0
aF814.0
aasg11
g60
ssS'b9'
p65
(dp66
g5
(lp67
(lp68
F1315.0
aF684.0
aa(lp69
F1328.0
aF691.0
aa(lp70
F1333.0
aF661.0
aasg11
(lp71
(lp72
F1329.0
aF666.0
aa(lp73
F1344.0
aF677.0
aa(lp74
F1344.0
aF663.0
aasssS'd'
p75
(dp76
S'd8'
p77
(dp78
g5
(lp79
(lp80
F1064.0
aF193.0
aa(lp81
F1098.0
aF168.0
aa(lp82
F1148.0
aF202.0
aa(lp83
F1111.0
aF213.0
aasg11
g79
ssS'd9'
p84
(dp85
g5
(lp86
(lp87
F938.0
aF128.0
aa(lp88
F938.0
aF145.0
aa(lp89
F924.0
aF140.0
aasg11
g86
ssS'd6'
p90
(dp91
g5
(lp92
(lp93
F800.0
aF204.0
aa(lp94
F849.0
aF181.0
aa(lp95
F874.0
aF190.0
aa(lp96
F846.0
aF218.0
aasg11
g92
ssS'd7'
p97
(dp98
g5
(lp99
(lp100
F1240.0
aF240.0
aa(lp101
F1296.0
aF266.0
aa(lp102
F1256.0
aF284.0
aa(lp103
F1216.0
aF259.0
aasg11
g99
ssS'd4'
p104
(dp105
g5
(lp106
(lp107
F1123.0
aF362.0
aa(lp108
F1187.0
aF341.0
aa(lp109
F1134.0
aF321.0
aa(lp110
F1089.0
aF346.0
aasg11
g106
ssS'd5'
p111
(dp112
g5
(lp113
(lp114
F924.0
aF257.0
aa(lp115
F926.0
aF280.0
aa(lp116
F906.0
aF270.0
aasg11
(lp117
(lp118
F848.0
aF222.0
aa(lp119
F881.0
aF202.0
aa(lp120
F844.0
aF181.0
aa(lp121
F798.0
aF200.0
aassS'd2'
p122
(dp123
g5
(lp124
(lp125
F842.0
aF321.0
aa(lp126
F871.0
aF343.0
aa(lp127
F832.0
aF373.0
aa(lp128
F798.0
aF343.0
aasg11
g124
ssS'd3'
p129
(dp130
g5
(lp131
(lp132
F712.0
aF250.0
aa(lp133
F748.0
aF270.0
aa(lp134
F696.0
aF293.0
aa(lp135
F652.0
aF275.0
aasg11
g131
ssS'd1'
p136
(dp137
g5
(lp138
(lp139
F983.0
aF416.0
aa(lp140
F1020.0
aF444.0
aa(lp141
F979.0
aF465.0
aa(lp142
F958.0
aF444.0
aasg11
g138
sssS'f'
p143
(dp144
S'f1'
p145
(dp146
g5
(lp147
(lp148
F892.0
aF803.0
aa(lp149
F954.0
aF853.0
aa(lp150
F936.0
aF869.0
aa(lp151
F896.0
aF826.0
aasg11
g147
ssS'f2'
p152
(dp153
g5
(lp154
(lp155
F782.0
aF718.0
aa(lp156
F814.0
aF759.0
aa(lp157
F819.0
aF773.0
aa(lp158
F776.0
aF741.0
aasg11
g154
ssS'f3'
p159
(dp160
g5
(lp161
(lp162
F677.0
aF640.0
aa(lp163
F688.0
aF634.0
aa(lp164
F670.0
aF616.0
aasg11
g161
ssS'f4'
p165
(dp166
g5
(lp167
(lp168
F874.0
aF680.0
aa(lp169
F926.0
aF728.0
aa(lp170
F926.0
aF760.0
aa(lp171
F880.0
aF709.0
aasg11
g167
ssS'f5'
p172
(dp173
g5
(lp174
(lp175
F746.0
aF588.0
aa(lp176
F760.0
aF577.0
aa(lp177
F741.0
aF572.0
aasg11
(lp178
(lp179
F689.0
aF563.0
aa(lp180
F682.0
aF535.0
aa(lp181
F650.0
aF512.0
aa(lp182
F654.0
aF542.0
aassS'f6'
p183
(dp184
g5
(lp185
(lp186
F648.0
aF504.0
aa(lp187
F679.0
aF531.0
aa(lp188
F688.0
aF568.0
aa(lp189
F656.0
aF542.0
aasg11
g185
ssS'f7'
p190
(dp191
g5
(lp192
(lp193
F871.0
aF542.0
aa(lp194
F913.0
aF572.0
aa(lp195
F920.0
aF620.0
aa(lp196
F869.0
aF592.0
aasg11
g192
ssS'f8'
p197
(dp198
g5
(lp199
(lp200
F728.0
aF440.0
aa(lp201
F776.0
aF471.0
aa(lp202
F794.0
aF513.0
aa(lp203
F741.0
aF488.0
aasg11
g199
ssS'f9'
p204
(dp205
g5
(lp206
(lp207
F629.0
aF410.0
aa(lp208
F622.0
aF355.0
aa(lp209
F645.0
aF375.0
aa(lp210
F650.0
aF407.0
aasg11
g206
sssS'l'
p211
(dp212
S'l6'
p213
(dp214
g5
(lp215
(lp216
F1022.0
aF736.0
aa(lp217
F1073.0
aF693.0
aa(lp218
F1073.0
aF725.0
aa(lp219
F1024.0
aF762.0
aasg11
(lp220
(lp221
F1052.0
aF727.0
aa(lp222
F1073.0
aF714.0
aa(lp223
F1068.0
aF741.0
aassS'l7'
p224
(dp225
g5
(lp226
(lp227
F1313.0
aF382.0
aa(lp228
F1336.0
aF357.0
aa(lp229
F1331.0
aF396.0
aa(lp230
F1299.0
aF419.0
aasg11
g226
ssS'l4'
p231
(dp232
g5
(lp233
(lp234
F1287.0
aF529.0
aa(lp235
F1317.0
aF508.0
aa(lp236
F1310.0
aF540.0
aa(lp237
F1280.0
aF563.0
aasg11
g233
ssS'l5'
p238
(dp239
g5
(lp240
(lp241
F1223.0
aF586.0
aa(lp242
F1235.0
aF602.0
aa(lp243
F1239.0
aF577.0
aasg11
(lp244
(lp245
F1176.0
aF513.0
aa(lp246
F1228.0
aF485.0
aa(lp247
F1223.0
aF444.0
aa(lp248
F1175.0
aF476.0
aassS'l2'
p249
(dp250
g5
(lp251
(lp252
F1152.0
aF748.0
aa(lp253
F1196.0
aF720.0
aa(lp254
F1192.0
aF739.0
aa(lp255
F1152.0
aF778.0
aasg11
(lp256
(lp257
F1184.0
aF743.0
aa(lp258
F1201.0
aF734.0
aa(lp259
F1207.0
aF748.0
aa(lp260
F1176.0
aF762.0
aassS'l3'
p261
(dp262
g5
(lp263
(lp264
F1029.0
aF860.0
aa(lp265
F1075.0
aF812.0
aa(lp266
F1080.0
aF835.0
aa(lp267
F1031.0
aF880.0
aasg11
g263
ssS'l1'
p268
(dp269
g5
(lp270
(lp271
F1283.0
aF638.0
aa(lp272
F1299.0
aF640.0
aa(lp273
F1297.0
aF616.0
aasg11
(lp274
(lp275
F1288.0
aF648.0
aa(lp276
F1299.0
aF656.0
aa(lp277
F1308.0
aF624.0
aassS'l8'
p278
(dp279
g5
(lp280
(lp281
F1175.0
aF472.0
aa(lp282
F1224.0
aF439.0
aa(lp283
F1228.0
aF476.0
aa(lp284
F1178.0
aF513.0
aasg11
g280
ssS'l9'
p285
(dp286
g5
(lp287
(lp288
F1029.0
aF579.0
aa(lp289
F1091.0
aF540.0
aa(lp290
F1079.0
aF579.0
aa(lp291
F1041.0
aF629.0
aasg11
g287
sssS'r'
p292
(dp293
S'r4'
p294
(dp295
g5
(lp296
(lp297
F627.0
aF528.0
aa(lp298
F654.0
aF549.0
aa(lp299
F664.0
aF586.0
aa(lp300
F632.0
aF556.0
aasg11
(lp301
(lp302
F648.0
aF526.0
aa(lp303
F673.0
aF536.0
aa(lp304
F668.0
aF556.0
aassS'r5'
p305
(dp306
g5
(lp307
(lp308
F737.0
aF620.0
aa(lp309
F755.0
aF615.0
aa(lp310
F739.0
aF600.0
aasg11
(lp311
(lp312
F648.0
aF522.0
aa(lp313
F673.0
aF536.0
aa(lp314
F670.0
aF563.0
aassS'r6'
p315
(dp316
g5
(lp317
(lp318
F867.0
aF741.0
aa(lp319
F931.0
aF805.0
aa(lp320
F929.0
aF833.0
aa(lp321
F874.0
aF773.0
aasg11
(lp322
(lp323
F897.0
aF746.0
aa(lp324
F924.0
aF771.0
aa(lp325
F908.0
aF780.0
aassS'r7'
p326
(dp327
g5
(lp328
(lp329
F657.0
aF650.0
aa(lp330
F684.0
aF675.0
aa(lp331
F663.0
aF679.0
aasg11
(lp332
(lp333
F675.0
aF659.0
aa(lp334
F693.0
aF657.0
aa(lp335
F675.0
aF643.0
aassS'r1'
p336
(dp337
g5
(lp338
(lp339
F609.0
aF366.0
aa(lp340
F640.0
aF391.0
aa(lp341
F638.0
aF419.0
aa(lp342
F620.0
aF400.0
aasg11
g338
ssS'r2'
p343
(dp344
g5
(lp345
(lp346
F705.0
aF460.0
aa(lp347
F768.0
aF512.0
aa(lp348
F768.0
aF552.0
aa(lp349
F712.0
aF501.0
aasg11
(lp350
(lp351
F741.0
aF472.0
aa(lp352
F775.0
aF494.0
aa(lp353
F757.0
aF506.0
aassS'r3'
p354
(dp355
g5
(lp356
(lp357
F848.0
aF593.0
aa(lp358
F926.0
aF656.0
aa(lp359
F924.0
aF689.0
aa(lp360
F853.0
aF636.0
aasg11
(lp361
(lp362
F888.0
aF590.0
aa(lp363
F917.0
aF613.0
aa(lp364
F908.0
aF634.0
aa(lp365
F888.0
aF618.0
aassS'r8'
p366
(dp367
g5
(lp368
(lp369
F757.0
aF746.0
aa(lp370
F796.0
aF792.0
aa(lp371
F801.0
aF814.0
aa(lp372
F768.0
aF778.0
aasg11
(lp373
(lp374
F776.0
aF759.0
aa(lp375
F803.0
aF785.0
aa(lp376
F794.0
aF760.0
aassS'r9'
p377
(dp378
g5
(lp379
(lp380
F897.0
aF872.0
aa(lp381
F928.0
aF887.0
aa(lp382
F933.0
aF912.0
aasg11
g379
sssS'u'
p383
(dp384
S'u9'
p385
(dp386
g5
(lp387
(lp388
F702.0
aF248.0
aa(lp389
F730.0
aF273.0
aa(lp390
F680.0
aF295.0
aa(lp391
F659.0
aF275.0
aasg11
g387
ssS'u8'
p392
(dp393
g5
(lp394
(lp395
F860.0
aF165.0
aa(lp396
F885.0
aF183.0
aa(lp397
F832.0
aF213.0
aa(lp398
F814.0
aF188.0
aasg11
g394
ssS'u5'
p399
(dp400
g5
(lp401
(lp402
F935.0
aF256.0
aa(lp403
F935.0
aF288.0
aa(lp404
F915.0
aF268.0
aasg11
(lp405
(lp406
F846.0
aF215.0
aa(lp407
F880.0
aF190.0
aa(lp408
F856.0
aF179.0
aa(lp409
F832.0
aF190.0
aassS'u4'
p410
(dp411
g5
(lp412
(lp413
F1139.0
aF161.0
aa(lp414
F1201.0
aF199.0
aa(lp415
F1160.0
aF213.0
aa(lp416
F1105.0
aF183.0
aasg11
g412
ssS'u7'
p417
(dp418
g5
(lp419
(lp420
F952.0
aF103.0
aa(lp421
F947.0
aF126.0
aa(lp422
F928.0
aF117.0
aasg11
g419
ssS'u6'
p423
(dp424
g5
(lp425
(lp426
F766.0
aF355.0
aa(lp427
F826.0
aF325.0
aa(lp428
F887.0
aF368.0
aa(lp429
F824.0
aF398.0
aasg11
g425
ssS'u1'
p430
(dp431
g5
(lp432
(lp433
F1304.0
aF247.0
aa(lp434
F1386.0
aF286.0
aa(lp435
F1328.0
aF307.0
aa(lp436
F1262.0
aF275.0
aasg11
g432
ssS'u3'
p437
(dp438
g5
(lp439
(lp440
F983.0
aF439.0
aa(lp441
F1029.0
aF478.0
aa(lp442
F984.0
aF519.0
aa(lp443
F924.0
aF480.0
aasg11
g439
ssS'u2'
p444
(dp445
g5
(lp446
(lp447
F1093.0
aF366.0
aa(lp448
F1153.0
aF336.0
aa(lp449
F1207.0
aF362.0
aa(lp450
F1153.0
aF410.0
aasg11
g446
sss.