(dp0
S'b'
p1
(dp2
S'b4'
p3
(dp4
S'standard'
p5
(lp6
(lp7
F389.0
aF359.0
aa(lp8
F416.0
aF350.0
aa(lp9
F405.0
aF373.0
aasS'calibration'
p10
g6
ssS'b5'
p11
(dp12
g5
(lp13
(lp14
F472.0
aF297.0
aa(lp15
F486.0
aF304.0
aa(lp16
F485.0
aF288.0
aasg10
(lp17
(lp18
F465.0
aF254.0
aa(lp19
F485.0
aF250.0
aa(lp20
F476.0
aF239.0
aassS'b6'
p21
(dp22
g5
(lp23
(lp24
F511.0
aF289.0
aa(lp25
F533.0
aF280.0
aa(lp26
F523.0
aF264.0
aasg10
g23
ssS'b7'
p27
(dp28
g5
(lp29
(lp30
F383.0
aF439.0
aa(lp31
F400.0
aF431.0
aa(lp32
F387.0
aF417.0
aasg10
g29
ssS'b1'
p33
(dp34
g5
(lp35
(lp36
F384.0
aF289.0
aa(lp37
F414.0
aF266.0
aa(lp38
F400.0
aF321.0
aasg10
g35
ssS'b2'
p39
(dp40
g5
(lp41
(lp42
F454.0
aF235.0
aa(lp43
F484.0
aF220.0
aa(lp44
F470.0
aF256.0
aasg10
g41
ssS'b3'
p45
(dp46
g5
(lp47
(lp48
F529.0
aF205.0
aa(lp49
F552.0
aF198.0
aa(lp50
F540.0
aF225.0
aasg10
g47
ssS'b8'
p51
(dp52
g5
(lp53
(lp54
F446.0
aF390.0
aa(lp55
F472.0
aF377.0
aa(lp56
F463.0
aF372.0
aasg10
g53
ssS'b9'
p57
(dp58
g5
(lp59
(lp60
F513.0
aF323.0
aa(lp61
F520.0
aF330.0
aa(lp62
F525.0
aF316.0
aasg10
g59
sssS'd'
p63
(dp64
S'd8'
p65
(dp66
g5
(lp67
(lp68
F262.0
aF54.0
aa(lp69
F267.0
aF72.0
aa(lp70
F280.0
aF62.0
aasg10
g67
ssS'd9'
p71
(dp72
g5
(lp73
(lp74
F212.0
aF36.0
aa(lp75
F212.0
aF49.0
aa(lp76
F202.0
aF41.0
aasg10
g73
ssS'd6'
p77
(dp78
g5
(lp79
(lp80
F179.0
aF54.0
aa(lp81
F163.0
aF62.0
aa(lp82
F186.0
aF68.0
aasg10
g79
ssS'd7'
p83
(dp84
g5
(lp85
(lp86
F305.0
aF75.0
aa(lp87
F305.0
aF94.0
aa(lp88
F338.0
aF85.0
aasg10
g85
ssS'd4'
p89
(dp90
g5
(lp91
(lp92
F270.0
aF108.0
aa(lp93
F282.0
aF120.0
aa(lp94
F260.0
aF124.0
aasg10
g91
ssS'd5'
p95
(dp96
g5
(lp97
(lp98
F240.0
aF78.0
aa(lp99
F239.0
aF89.0
aa(lp100
F244.0
aF87.0
aasg10
(lp101
(lp102
F265.0
aF99.0
aa(lp103
F255.0
aF118.0
aa(lp104
F279.0
aF120.0
aassS'd2'
p105
(dp106
g5
(lp107
(lp108
F174.0
aF104.0
aa(lp109
F195.0
aF120.0
aa(lp110
F172.0
aF122.0
aasg10
g107
ssS'd3'
p111
(dp112
g5
(lp113
(lp114
F128.0
aF80.0
aa(lp115
F147.0
aF85.0
aa(lp116
F128.0
aF96.0
aasg10
g113
ssS'd1'
p117
(dp118
g5
(lp119
(lp120
F218.0
aF144.0
aa(lp121
F234.0
aF163.0
aa(lp122
F206.0
aF163.0
aasg10
g119
sssS'f'
p123
(dp124
S'f1'
p125
(dp126
g5
(lp127
(lp128
F200.0
aF267.0
aa(lp129
F214.0
aF276.0
aa(lp130
F207.0
aF279.0
aasg10
g127
ssS'f2'
p131
(dp132
g5
(lp133
(lp134
F154.0
aF231.0
aa(lp135
F169.0
aF241.0
aa(lp136
F161.0
aF244.0
aasg10
g133
ssS'f3'
p137
(dp138
g5
(lp139
(lp140
F120.0
aF200.0
aa(lp141
F131.0
aF208.0
aa(lp142
F122.0
aF214.0
aasg10
g139
ssS'f4'
p143
(dp144
g5
(lp145
(lp146
F193.0
aF231.0
aa(lp147
F207.0
aF243.0
aa(lp148
F200.0
aF249.0
aasg10
g145
ssS'f5'
p149
(dp150
g5
(lp151
(lp152
F142.0
aF192.0
aa(lp153
F153.0
aF189.0
aa(lp154
F142.0
aF184.0
aasg10
(lp155
(lp156
F117.0
aF178.0
aa(lp157
F128.0
aF184.0
aa(lp158
F121.0
aF166.0
aassS'f6'
p159
(dp160
g5
(lp161
(lp162
F115.0
aF177.0
aa(lp163
F122.0
aF182.0
aa(lp164
F119.0
aF162.0
aasg10
g161
ssS'f7'
p165
(dp166
g5
(lp167
(lp168
F186.0
aF203.0
aa(lp169
F203.0
aF217.0
aa(lp170
F200.0
aF199.0
aasg10
g167
ssS'f8'
p171
(dp172
g5
(lp173
(lp174
F141.0
aF153.0
aa(lp175
F156.0
aF166.0
aa(lp176
F154.0
aF153.0
aasg10
g173
ssS'f9'
p177
(dp178
g5
(lp179
(lp180
F101.0
aF135.0
aa(lp181
F116.0
aF141.0
aa(lp182
F112.0
aF128.0
aasg10
g179
sssS'l'
p183
(dp184
S'l6'
p185
(dp186
g5
(lp187
(lp188
F241.0
aF265.0
aa(lp189
F257.0
aF243.0
aa(lp190
F244.0
aF241.0
aasg10
g187
ssS'l7'
p191
(dp192
g5
(lp193
(lp194
F328.0
aF136.0
aa(lp195
F341.0
aF127.0
aa(lp196
F335.0
aF122.0
aasg10
g193
ssS'l4'
p197
(dp198
g5
(lp199
(lp200
F320.0
aF187.0
aa(lp201
F332.0
aF179.0
aa(lp202
F322.0
aF171.0
aasg10
g199
ssS'l5'
p203
(dp204
g5
(lp205
(lp206
F293.0
aF195.0
aa(lp207
F303.0
aF197.0
aa(lp208
F301.0
aF187.0
aasg10
(lp209
(lp210
F286.0
aF177.0
aa(lp211
F304.0
aF167.0
aa(lp212
F293.0
aF155.0
aassS'l2'
p213
(dp214
g5
(lp215
(lp216
F280.0
aF254.0
aa(lp217
F292.0
aF244.0
aa(lp218
F285.0
aF241.0
aasg10
g215
ssS'l3'
p219
(dp220
g5
(lp221
(lp222
F243.0
aF291.0
aa(lp223
F256.0
aF280.0
aa(lp224
F247.0
aF279.0
aasg10
g221
ssS'l1'
p225
(dp226
g5
(lp227
(lp228
F317.0
aF205.0
aa(lp229
F328.0
aF207.0
aa(lp230
F327.0
aF197.0
aasg10
g227
ssS'l8'
p231
(dp232
g5
(lp233
(lp234
F286.0
aF174.0
aa(lp235
F308.0
aF165.0
aa(lp236
F299.0
aF149.0
aasg10
g233
ssS'l9'
p237
(dp238
g5
(lp239
(lp240
F240.0
aF215.0
aa(lp241
F257.0
aF200.0
aa(lp242
F245.0
aF197.0
aasg10
g239
sssS'r'
p243
(dp244
S'r4'
p245
(dp246
g5
(lp247
(lp248
F199.0
aF268.0
aa(lp249
F200.0
aF250.0
aa(lp250
F218.0
aF278.0
aasg10
g247
ssS'r5'
p251
(dp252
g5
(lp253
(lp254
F247.0
aF298.0
aa(lp255
F260.0
aF298.0
aa(lp256
F249.0
aF287.0
aasg10
(lp257
(lp258
F312.0
aF344.0
aa(lp259
F341.0
aF362.0
aa(lp260
F312.0
aF365.0
aassS'r6'
p261
(dp262
g5
(lp263
(lp264
F311.0
aF363.0
aa(lp265
F313.0
aF344.0
aa(lp266
F344.0
aF368.0
aasg10
g263
ssS'r7'
p267
(dp268
g5
(lp269
(lp270
F217.0
aF329.0
aa(lp271
F227.0
aF319.0
aa(lp272
F218.0
aF305.0
aasg10
g269
ssS'r1'
p273
(dp274
g5
(lp275
(lp276
F192.0
aF206.0
aa(lp277
F192.0
aF179.0
aa(lp278
F210.0
aF205.0
aasg10
g275
ssS'r2'
p279
(dp280
g5
(lp281
(lp282
F239.0
aF241.0
aa(lp283
F241.0
aF215.0
aa(lp284
F264.0
aF247.0
aasg10
g281
ssS'r3'
p285
(dp286
g5
(lp287
(lp288
F311.0
aF297.0
aa(lp289
F309.0
aF279.0
aa(lp290
F331.0
aF297.0
aasg10
g287
ssS'r8'
p291
(dp292
g5
(lp293
(lp294
F266.0
aF369.0
aa(lp295
F286.0
aF383.0
aa(lp296
F278.0
aF361.0
aasg10
g293
ssS'r9'
p297
(dp298
g5
(lp299
(lp300
F313.0
aF417.0
aa(lp301
F338.0
aF433.0
aa(lp302
F329.0
aF409.0
aasg10
g299
sssS'u'
p303
(dp304
S'u9'
p305
(dp306
g5
(lp307
(lp308
F248.0
aF124.0
aa(lp309
F256.0
aF147.0
aa(lp310
F223.0
aF139.0
aasg10
g307
ssS'u8'
p311
(dp312
g5
(lp313
(lp314
F303.0
aF91.0
aa(lp315
F315.0
aF97.0
aa(lp316
F292.0
aF112.0
aasg10
g313
ssS'u5'
p317
(dp318
g5
(lp319
(lp320
F343.0
aF127.0
aa(lp321
F344.0
aF149.0
aa(lp322
F336.0
aF136.0
aasg10
(lp323
(lp324
F431.0
aF163.0
aa(lp325
F451.0
aF180.0
aa(lp326
F412.0
aF176.0
aassS'u4'
p327
(dp328
g5
(lp329
(lp330
F440.0
aF90.0
aa(lp331
F460.0
aF107.0
aa(lp332
F433.0
aF105.0
aasg10
g329
ssS'u7'
p333
(dp334
g5
(lp335
(lp336
F408.0
aF75.0
aa(lp337
F391.0
aF65.0
aa(lp338
F386.0
aF88.0
aasg10
g335
ssS'u6'
p339
(dp340
g5
(lp341
(lp342
F305.0
aF162.0
aa(lp343
F305.0
aF202.0
aa(lp344
F280.0
aF184.0
aasg10
g341
ssS'u1'
p345
(dp346
g5
(lp347
(lp348
F504.0
aF131.0
aa(lp349
F522.0
aF149.0
aa(lp350
F496.0
aF151.0
aasg10
g347
ssS'u3'
p351
(dp352
g5
(lp353
(lp354
F358.0
aF206.0
aa(lp355
F379.0
aF220.0
aa(lp356
F340.0
aF230.0
aasg10
g353
ssS'u2'
p357
(dp358
g5
(lp359
(lp360
F436.0
aF164.0
aa(lp361
F454.0
aF176.0
aa(lp362
F417.0
aF177.0
aasg10
g359
sss.