(iclass_cube_detection_and_calibration
cube_detection_and_calibration
p0
(dp1
S'cube'
p2
(dp3
S'b'
p4
(dp5
S'b4'
p6
(iclass_sticker_detection_and_calibration
Sticker_Detection_And_Calibration
p7
(dp8
S'calibration_polygon_points'
p9
(lp10
sS'thresholds'
p11
(dp12
g4
(dp13
S'upper_limit'
p14
cnumpy.core.multiarray
_reconstruct
p15
(cnumpy
ndarray
p16
(I0
tp17
g4
tp18
Rp19
(I1
(I3
tp20
cnumpy
dtype
p21
(S'u1'
p22
I0
I1
tp23
Rp24
(I3
S'|'
p25
NNNI-1
I-1
I0
tp26
bI00
S'\xff\x80\x80'
p27
tp28
bsS'lower_limit'
p29
g15
(g16
(I0
tp30
g4
tp31
Rp32
(I1
(I3
tp33
g24
I00
S'\x00\x80\x80'
p34
tp35
bssS'd'
p36
(dp37
g14
g19
sg29
g32
ssS'f'
p38
(dp39
g14
g19
sg29
g32
ssS'l'
p40
(dp41
g14
g19
sg29
g32
ssS'r'
p42
(dp43
g14
g19
sg29
g32
ssS'u'
p44
(dp45
g14
g19
sg29
g32
sssS'pixel_count_in_polygon'
p46
I0
sS'name'
p47
g6
sS'polygon_points'
p48
(lp49
sbsS'b5'
p50
(iclass_sticker_detection_and_calibration
Sticker_Detection_And_Calibration
p51
(dp52
g9
(lp53
sg11
(dp54
g4
(dp55
g14
g15
(g16
(I0
tp56
g4
tp57
Rp58
(I1
(I3
tp59
g24
I00
S'\xff\x80\x80'
p60
tp61
bsg29
g15
(g16
(I0
tp62
g4
tp63
Rp64
(I1
(I3
tp65
g24
I00
S'\x00\x80\x80'
p66
tp67
bssg36
(dp68
g14
g58
sg29
g64
ssg38
(dp69
g14
g58
sg29
g64
ssg40
(dp70
g14
g58
sg29
g64
ssg42
(dp71
g14
g58
sg29
g64
ssg44
(dp72
g14
g58
sg29
g64
sssg46
I0
sg47
g50
sg48
(lp73
sbsS'b6'
p74
(iclass_sticker_detection_and_calibration
Sticker_Detection_And_Calibration
p75
(dp76
g9
(lp77
sg11
(dp78
g4
(dp79
g14
g15
(g16
(I0
tp80
g4
tp81
Rp82
(I1
(I3
tp83
g24
I00
S'\xff\x80\x80'
p84
tp85
bsg29
g15
(g16
(I0
tp86
g4
tp87
Rp88
(I1
(I3
tp89
g24
I00
S'\x00\x80\x80'
p90
tp91
bssg36
(dp92
g14
g82
sg29
g88
ssg38
(dp93
g14
g82
sg29
g88
ssg40
(dp94
g14
g82
sg29
g88
ssg42
(dp95
g14
g82
sg29
g88
ssg44
(dp96
g14
g82
sg29
g88
sssg46
I0
sg47
g74
sg48
(lp97
sbsS'b7'
p98
(iclass_sticker_detection_and_calibration
Sticker_Detection_And_Calibration
p99
(dp100
g9
(lp101
sg11
(dp102
g4
(dp103
g14
g15
(g16
(I0
tp104
g4
tp105
Rp106
(I1
(I3
tp107
g24
I00
S'\xff\x80\x80'
p108
tp109
bsg29
g15
(g16
(I0
tp110
g4
tp111
Rp112
(I1
(I3
tp113
g24
I00
S'\x00\x80\x80'
p114
tp115
bssg36
(dp116
g14
g106
sg29
g112
ssg38
(dp117
g14
g106
sg29
g112
ssg40
(dp118
g14
g106
sg29
g112
ssg42
(dp119
g14
g106
sg29
g112
ssg44
(dp120
g14
g106
sg29
g112
sssg46
I0
sg47
g98
sg48
(lp121
sbsS'b1'
p122
(iclass_sticker_detection_and_calibration
Sticker_Detection_And_Calibration
p123
(dp124
g9
(lp125
sg11
(dp126
g4
(dp127
g14
g15
(g16
(I0
tp128
g4
tp129
Rp130
(I1
(I3
tp131
g24
I00
S'\xff\x80\x80'
p132
tp133
bsg29
g15
(g16
(I0
tp134
g4
tp135
Rp136
(I1
(I3
tp137
g24
I00
S'\x00\x80\x80'
p138
tp139
bssg36
(dp140
g14
g130
sg29
g136
ssg38
(dp141
g14
g130
sg29
g136
ssg40
(dp142
g14
g130
sg29
g136
ssg42
(dp143
g14
g130
sg29
g136
ssg44
(dp144
g14
g130
sg29
g136
sssg46
I0
sg47
g122
sg48
(lp145
sbsS'b2'
p146
(iclass_sticker_detection_and_calibration
Sticker_Detection_And_Calibration
p147
(dp148
g9
(lp149
sg11
(dp150
g4
(dp151
g14
g15
(g16
(I0
tp152
g4
tp153
Rp154
(I1
(I3
tp155
g24
I00
S'\xff\x80\x80'
p156
tp157
bsg29
g15
(g16
(I0
tp158
g4
tp159
Rp160
(I1
(I3
tp161
g24
I00
S'\x00\x80\x80'
p162
tp163
bssg36
(dp164
g14
g154
sg29
g160
ssg38
(dp165
g14
g154
sg29
g160
ssg40
(dp166
g14
g154
sg29
g160
ssg42
(dp167
g14
g154
sg29
g160
ssg44
(dp168
g14
g154
sg29
g160
sssg46
I0
sg47
g146
sg48
(lp169
sbsS'b3'
p170
(iclass_sticker_detection_and_calibration
Sticker_Detection_And_Calibration
p171
(dp172
g9
(lp173
sg11
(dp174
g4
(dp175
g14
g15
(g16
(I0
tp176
g4
tp177
Rp178
(I1
(I3
tp179
g24
I00
S'\xff\x80\x80'
p180
tp181
bsg29
g15
(g16
(I0
tp182
g4
tp183
Rp184
(I1
(I3
tp185
g24
I00
S'\x00\x80\x80'
p186
tp187
bssg36
(dp188
g14
g178
sg29
g184
ssg38
(dp189
g14
g178
sg29
g184
ssg40
(dp190
g14
g178
sg29
g184
ssg42
(dp191
g14
g178
sg29
g184
ssg44
(dp192
g14
g178
sg29
g184
sssg46
I0
sg47
g170
sg48
(lp193
sbsS'b8'
p194
(iclass_sticker_detection_and_calibration
Sticker_Detection_And_Calibration
p195
(dp196
g9
(lp197
sg11
(dp198
g4
(dp199
g14
g15
(g16
(I0
tp200
g4
tp201
Rp202
(I1
(I3
tp203
g24
I00
S'\xff\x80\x80'
p204
tp205
bsg29
g15
(g16
(I0
tp206
g4
tp207
Rp208
(I1
(I3
tp209
g24
I00
S'\x00\x80\x80'
p210
tp211
bssg36
(dp212
g14
g202
sg29
g208
ssg38
(dp213
g14
g202
sg29
g208
ssg40
(dp214
g14
g202
sg29
g208
ssg42
(dp215
g14
g202
sg29
g208
ssg44
(dp216
g14
g202
sg29
g208
sssg46
I0
sg47
g194
sg48
(lp217
sbsS'b9'
p218
(iclass_sticker_detection_and_calibration
Sticker_Detection_And_Calibration
p219
(dp220
g9
(lp221
sg11
(dp222
g4
(dp223
g14
g15
(g16
(I0
tp224
g4
tp225
Rp226
(I1
(I3
tp227
g24
I00
S'\xff\x80\x80'
p228
tp229
bsg29
g15
(g16
(I0
tp230
g4
tp231
Rp232
(I1
(I3
tp233
g24
I00
S'\x00\x80\x80'
p234
tp235
bssg36
(dp236
g14
g226
sg29
g232
ssg38
(dp237
g14
g226
sg29
g232
ssg40
(dp238
g14
g226
sg29
g232
ssg42
(dp239
g14
g226
sg29
g232
ssg44
(dp240
g14
g226
sg29
g232
sssg46
I0
sg47
g218
sg48
(lp241
sbssg36
(dp242
S'd8'
p243
(iclass_sticker_detection_and_calibration
Sticker_Detection_And_Calibration
p244
(dp245
g9
(lp246
sg11
(dp247
g4
(dp248
g14
g15
(g16
(I0
tp249
g4
tp250
Rp251
(I1
(I3
tp252
g24
I00
S'\xff\x80\x80'
p253
tp254
bsg29
g15
(g16
(I0
tp255
g4
tp256
Rp257
(I1
(I3
tp258
g24
I00
S'\x00\x80\x80'
p259
tp260
bssg36
(dp261
g14
g251
sg29
g257
ssg38
(dp262
g14
g251
sg29
g257
ssg40
(dp263
g14
g251
sg29
g257
ssg42
(dp264
g14
g251
sg29
g257
ssg44
(dp265
g14
g251
sg29
g257
sssg46
I0
sg47
g243
sg48
(lp266
sbsS'd9'
p267
(iclass_sticker_detection_and_calibration
Sticker_Detection_And_Calibration
p268
(dp269
g9
(lp270
sg11
(dp271
g4
(dp272
g14
g15
(g16
(I0
tp273
g4
tp274
Rp275
(I1
(I3
tp276
g24
I00
S'\xff\x80\x80'
p277
tp278
bsg29
g15
(g16
(I0
tp279
g4
tp280
Rp281
(I1
(I3
tp282
g24
I00
S'\x00\x80\x80'
p283
tp284
bssg36
(dp285
g14
g275
sg29
g281
ssg38
(dp286
g14
g275
sg29
g281
ssg40
(dp287
g14
g275
sg29
g281
ssg42
(dp288
g14
g275
sg29
g281
ssg44
(dp289
g14
g275
sg29
g281
sssg46
I0
sg47
g267
sg48
(lp290
sbsS'd6'
p291
(iclass_sticker_detection_and_calibration
Sticker_Detection_And_Calibration
p292
(dp293
g9
(lp294
sg11
(dp295
g4
(dp296
g14
g15
(g16
(I0
tp297
g4
tp298
Rp299
(I1
(I3
tp300
g24
I00
S'\xff\x80\x80'
p301
tp302
bsg29
g15
(g16
(I0
tp303
g4
tp304
Rp305
(I1
(I3
tp306
g24
I00
S'\x00\x80\x80'
p307
tp308
bssg36
(dp309
g14
g299
sg29
g305
ssg38
(dp310
g14
g299
sg29
g305
ssg40
(dp311
g14
g299
sg29
g305
ssg42
(dp312
g14
g299
sg29
g305
ssg44
(dp313
g14
g299
sg29
g305
sssg46
I0
sg47
g291
sg48
(lp314
sbsS'd7'
p315
(iclass_sticker_detection_and_calibration
Sticker_Detection_And_Calibration
p316
(dp317
g9
(lp318
sg11
(dp319
g4
(dp320
g14
g15
(g16
(I0
tp321
g4
tp322
Rp323
(I1
(I3
tp324
g24
I00
S'\xff\x80\x80'
p325
tp326
bsg29
g15
(g16
(I0
tp327
g4
tp328
Rp329
(I1
(I3
tp330
g24
I00
S'\x00\x80\x80'
p331
tp332
bssg36
(dp333
g14
g323
sg29
g329
ssg38
(dp334
g14
g323
sg29
g329
ssg40
(dp335
g14
g323
sg29
g329
ssg42
(dp336
g14
g323
sg29
g329
ssg44
(dp337
g14
g323
sg29
g329
sssg46
I0
sg47
g315
sg48
(lp338
sbsS'd4'
p339
(iclass_sticker_detection_and_calibration
Sticker_Detection_And_Calibration
p340
(dp341
g9
(lp342
sg11
(dp343
g4
(dp344
g14
g15
(g16
(I0
tp345
g4
tp346
Rp347
(I1
(I3
tp348
g24
I00
S'\xff\x80\x80'
p349
tp350
bsg29
g15
(g16
(I0
tp351
g4
tp352
Rp353
(I1
(I3
tp354
g24
I00
S'\x00\x80\x80'
p355
tp356
bssg36
(dp357
g14
g347
sg29
g353
ssg38
(dp358
g14
g347
sg29
g353
ssg40
(dp359
g14
g347
sg29
g353
ssg42
(dp360
g14
g347
sg29
g353
ssg44
(dp361
g14
g347
sg29
g353
sssg46
I0
sg47
g339
sg48
(lp362
sbsS'd5'
p363
(iclass_sticker_detection_and_calibration
Sticker_Detection_And_Calibration
p364
(dp365
g9
(lp366
sg11
(dp367
g4
(dp368
g14
g15
(g16
(I0
tp369
g4
tp370
Rp371
(I1
(I3
tp372
g24
I00
S'\xff\x80\x80'
p373
tp374
bsg29
g15
(g16
(I0
tp375
g4
tp376
Rp377
(I1
(I3
tp378
g24
I00
S'\x00\x80\x80'
p379
tp380
bssg36
(dp381
g14
g371
sg29
g377
ssg38
(dp382
g14
g371
sg29
g377
ssg40
(dp383
g14
g371
sg29
g377
ssg42
(dp384
g14
g371
sg29
g377
ssg44
(dp385
g14
g371
sg29
g377
sssg46
I0
sg47
g363
sg48
(lp386
sbsS'd2'
p387
(iclass_sticker_detection_and_calibration
Sticker_Detection_And_Calibration
p388
(dp389
g9
(lp390
sg11
(dp391
g4
(dp392
g14
g15
(g16
(I0
tp393
g4
tp394
Rp395
(I1
(I3
tp396
g24
I00
S'\xff\x80\x80'
p397
tp398
bsg29
g15
(g16
(I0
tp399
g4
tp400
Rp401
(I1
(I3
tp402
g24
I00
S'\x00\x80\x80'
p403
tp404
bssg36
(dp405
g14
g395
sg29
g401
ssg38
(dp406
g14
g395
sg29
g401
ssg40
(dp407
g14
g395
sg29
g401
ssg42
(dp408
g14
g395
sg29
g401
ssg44
(dp409
g14
g395
sg29
g401
sssg46
I0
sg47
g387
sg48
(lp410
sbsS'd3'
p411
(iclass_sticker_detection_and_calibration
Sticker_Detection_And_Calibration
p412
(dp413
g9
(lp414
sg11
(dp415
g4
(dp416
g14
g15
(g16
(I0
tp417
g4
tp418
Rp419
(I1
(I3
tp420
g24
I00
S'\xff\x80\x80'
p421
tp422
bsg29
g15
(g16
(I0
tp423
g4
tp424
Rp425
(I1
(I3
tp426
g24
I00
S'\x00\x80\x80'
p427
tp428
bssg36
(dp429
g14
g419
sg29
g425
ssg38
(dp430
g14
g419
sg29
g425
ssg40
(dp431
g14
g419
sg29
g425
ssg42
(dp432
g14
g419
sg29
g425
ssg44
(dp433
g14
g419
sg29
g425
sssg46
I0
sg47
g411
sg48
(lp434
sbsS'd1'
p435
(iclass_sticker_detection_and_calibration
Sticker_Detection_And_Calibration
p436
(dp437
g9
(lp438
sg11
(dp439
g4
(dp440
g14
g15
(g16
(I0
tp441
g4
tp442
Rp443
(I1
(I3
tp444
g24
I00
S'\xff\x80\x80'
p445
tp446
bsg29
g15
(g16
(I0
tp447
g4
tp448
Rp449
(I1
(I3
tp450
g24
I00
S'\x00\x80\x80'
p451
tp452
bssg36
(dp453
g14
g443
sg29
g449
ssg38
(dp454
g14
g443
sg29
g449
ssg40
(dp455
g14
g443
sg29
g449
ssg42
(dp456
g14
g443
sg29
g449
ssg44
(dp457
g14
g443
sg29
g449
sssg46
I0
sg47
g435
sg48
(lp458
sbssg38
(dp459
S'f1'
p460
(iclass_sticker_detection_and_calibration
Sticker_Detection_And_Calibration
p461
(dp462
g9
(lp463
sg11
(dp464
g4
(dp465
g14
g15
(g16
(I0
tp466
g4
tp467
Rp468
(I1
(I3
tp469
g24
I00
S'\xff\x80\x80'
p470
tp471
bsg29
g15
(g16
(I0
tp472
g4
tp473
Rp474
(I1
(I3
tp475
g24
I00
S'\x00\x80\x80'
p476
tp477
bssg36
(dp478
g14
g468
sg29
g474
ssg38
(dp479
g14
g468
sg29
g474
ssg40
(dp480
g14
g468
sg29
g474
ssg42
(dp481
g14
g468
sg29
g474
ssg44
(dp482
g14
g468
sg29
g474
sssg46
I0
sg47
g460
sg48
(lp483
(lp484
F239.0
aF199.0
aa(lp485
F249.0
aF185.0
aa(lp486
F251.0
aF209.0
aasbsS'f2'
p487
(iclass_sticker_detection_and_calibration
Sticker_Detection_And_Calibration
p488
(dp489
g9
(lp490
sg11
(dp491
g4
(dp492
g14
g15
(g16
(I0
tp493
g4
tp494
Rp495
(I1
(I3
tp496
g24
I00
S'\xff\x80\x80'
p497
tp498
bsg29
g15
(g16
(I0
tp499
g4
tp500
Rp501
(I1
(I3
tp502
g24
I00
S'\x00\x80\x80'
p503
tp504
bssg36
(dp505
g14
g495
sg29
g501
ssg38
(dp506
g14
g495
sg29
g501
ssg40
(dp507
g14
g495
sg29
g501
ssg42
(dp508
g14
g495
sg29
g501
ssg44
(dp509
g14
g495
sg29
g501
sssg46
I0
sg47
g487
sg48
(lp510
sbsS'f3'
p511
(iclass_sticker_detection_and_calibration
Sticker_Detection_And_Calibration
p512
(dp513
g9
(lp514
sg11
(dp515
g4
(dp516
g14
g15
(g16
(I0
tp517
g4
tp518
Rp519
(I1
(I3
tp520
g24
I00
S'\xff\x80\x80'
p521
tp522
bsg29
g15
(g16
(I0
tp523
g4
tp524
Rp525
(I1
(I3
tp526
g24
I00
S'\x00\x80\x80'
p527
tp528
bssg36
(dp529
g14
g519
sg29
g525
ssg38
(dp530
g14
g519
sg29
g525
ssg40
(dp531
g14
g519
sg29
g525
ssg42
(dp532
g14
g519
sg29
g525
ssg44
(dp533
g14
g519
sg29
g525
sssg46
I0
sg47
g511
sg48
(lp534
sbsS'f4'
p535
(iclass_sticker_detection_and_calibration
Sticker_Detection_And_Calibration
p536
(dp537
g9
(lp538
sg11
(dp539
g4
(dp540
g14
g15
(g16
(I0
tp541
g4
tp542
Rp543
(I1
(I3
tp544
g24
I00
S'\xff\x80\x80'
p545
tp546
bsg29
g15
(g16
(I0
tp547
g4
tp548
Rp549
(I1
(I3
tp550
g24
I00
S'\x00\x80\x80'
p551
tp552
bssg36
(dp553
g14
g543
sg29
g549
ssg38
(dp554
g14
g543
sg29
g549
ssg40
(dp555
g14
g543
sg29
g549
ssg42
(dp556
g14
g543
sg29
g549
ssg44
(dp557
g14
g543
sg29
g549
sssg46
I0
sg47
g535
sg48
(lp558
sbsS'f5'
p559
(iclass_sticker_detection_and_calibration
Sticker_Detection_And_Calibration
p560
(dp561
g9
(lp562
sg11
(dp563
g4
(dp564
g14
g15
(g16
(I0
tp565
g4
tp566
Rp567
(I1
(I3
tp568
g24
I00
S'\xff\x80\x80'
p569
tp570
bsg29
g15
(g16
(I0
tp571
g4
tp572
Rp573
(I1
(I3
tp574
g24
I00
S'\x00\x80\x80'
p575
tp576
bssg36
(dp577
g14
g567
sg29
g573
ssg38
(dp578
g14
g567
sg29
g573
ssg40
(dp579
g14
g567
sg29
g573
ssg42
(dp580
g14
g567
sg29
g573
ssg44
(dp581
g14
g567
sg29
g573
sssg46
I0
sg47
g559
sg48
(lp582
sbsS'f6'
p583
(iclass_sticker_detection_and_calibration
Sticker_Detection_And_Calibration
p584
(dp585
g9
(lp586
sg11
(dp587
g4
(dp588
g14
g15
(g16
(I0
tp589
g4
tp590
Rp591
(I1
(I3
tp592
g24
I00
S'\xff\x80\x80'
p593
tp594
bsg29
g15
(g16
(I0
tp595
g4
tp596
Rp597
(I1
(I3
tp598
g24
I00
S'\x00\x80\x80'
p599
tp600
bssg36
(dp601
g14
g591
sg29
g597
ssg38
(dp602
g14
g591
sg29
g597
ssg40
(dp603
g14
g591
sg29
g597
ssg42
(dp604
g14
g591
sg29
g597
ssg44
(dp605
g14
g591
sg29
g597
sssg46
I0
sg47
g583
sg48
(lp606
sbsS'f7'
p607
(iclass_sticker_detection_and_calibration
Sticker_Detection_And_Calibration
p608
(dp609
g9
(lp610
sg11
(dp611
g4
(dp612
g14
g15
(g16
(I0
tp613
g4
tp614
Rp615
(I1
(I3
tp616
g24
I00
S'\xff\x80\x80'
p617
tp618
bsg29
g15
(g16
(I0
tp619
g4
tp620
Rp621
(I1
(I3
tp622
g24
I00
S'\x00\x80\x80'
p623
tp624
bssg36
(dp625
g14
g615
sg29
g621
ssg38
(dp626
g14
g615
sg29
g621
ssg40
(dp627
g14
g615
sg29
g621
ssg42
(dp628
g14
g615
sg29
g621
ssg44
(dp629
g14
g615
sg29
g621
sssg46
I0
sg47
g607
sg48
(lp630
sbsS'f8'
p631
(iclass_sticker_detection_and_calibration
Sticker_Detection_And_Calibration
p632
(dp633
g9
(lp634
sg11
(dp635
g4
(dp636
g14
g15
(g16
(I0
tp637
g4
tp638
Rp639
(I1
(I3
tp640
g24
I00
S'\xff\x80\x80'
p641
tp642
bsg29
g15
(g16
(I0
tp643
g4
tp644
Rp645
(I1
(I3
tp646
g24
I00
S'\x00\x80\x80'
p647
tp648
bssg36
(dp649
g14
g639
sg29
g645
ssg38
(dp650
g14
g639
sg29
g645
ssg40
(dp651
g14
g639
sg29
g645
ssg42
(dp652
g14
g639
sg29
g645
ssg44
(dp653
g14
g639
sg29
g645
sssg46
I0
sg47
g631
sg48
(lp654
sbsS'f9'
p655
(iclass_sticker_detection_and_calibration
Sticker_Detection_And_Calibration
p656
(dp657
g9
(lp658
sg11
(dp659
g4
(dp660
g14
g15
(g16
(I0
tp661
g4
tp662
Rp663
(I1
(I3
tp664
g24
I00
S'\xff\x80\x80'
p665
tp666
bsg29
g15
(g16
(I0
tp667
g4
tp668
Rp669
(I1
(I3
tp670
g24
I00
S'\x00\x80\x80'
p671
tp672
bssg36
(dp673
g14
g663
sg29
g669
ssg38
(dp674
g14
g663
sg29
g669
ssg40
(dp675
g14
g663
sg29
g669
ssg42
(dp676
g14
g663
sg29
g669
ssg44
(dp677
g14
g663
sg29
g669
sssg46
I0
sg47
g655
sg48
(lp678
sbssg40
(dp679
S'l6'
p680
(iclass_sticker_detection_and_calibration
Sticker_Detection_And_Calibration
p681
(dp682
g9
(lp683
sg11
(dp684
g4
(dp685
g14
g15
(g16
(I0
tp686
g4
tp687
Rp688
(I1
(I3
tp689
g24
I00
S'\xff\x80\x80'
p690
tp691
bsg29
g15
(g16
(I0
tp692
g4
tp693
Rp694
(I1
(I3
tp695
g24
I00
S'\x00\x80\x80'
p696
tp697
bssg36
(dp698
g14
g688
sg29
g694
ssg38
(dp699
g14
g688
sg29
g694
ssg40
(dp700
g14
g688
sg29
g694
ssg42
(dp701
g14
g688
sg29
g694
ssg44
(dp702
g14
g688
sg29
g694
sssg46
I0
sg47
g680
sg48
(lp703
sbsS'l7'
p704
(iclass_sticker_detection_and_calibration
Sticker_Detection_And_Calibration
p705
(dp706
g9
(lp707
sg11
(dp708
g4
(dp709
g14
g15
(g16
(I0
tp710
g4
tp711
Rp712
(I1
(I3
tp713
g24
I00
S'\xff\x80\x80'
p714
tp715
bsg29
g15
(g16
(I0
tp716
g4
tp717
Rp718
(I1
(I3
tp719
g24
I00
S'\x00\x80\x80'
p720
tp721
bssg36
(dp722
g14
g712
sg29
g718
ssg38
(dp723
g14
g712
sg29
g718
ssg40
(dp724
g14
g712
sg29
g718
ssg42
(dp725
g14
g712
sg29
g718
ssg44
(dp726
g14
g712
sg29
g718
sssg46
I0
sg47
g704
sg48
(lp727
sbsS'l4'
p728
(iclass_sticker_detection_and_calibration
Sticker_Detection_And_Calibration
p729
(dp730
g9
(lp731
sg11
(dp732
g4
(dp733
g14
g15
(g16
(I0
tp734
g4
tp735
Rp736
(I1
(I3
tp737
g24
I00
S'\xff\x80\x80'
p738
tp739
bsg29
g15
(g16
(I0
tp740
g4
tp741
Rp742
(I1
(I3
tp743
g24
I00
S'\x00\x80\x80'
p744
tp745
bssg36
(dp746
g14
g736
sg29
g742
ssg38
(dp747
g14
g736
sg29
g742
ssg40
(dp748
g14
g736
sg29
g742
ssg42
(dp749
g14
g736
sg29
g742
ssg44
(dp750
g14
g736
sg29
g742
sssg46
I0
sg47
g728
sg48
(lp751
sbsS'l5'
p752
(iclass_sticker_detection_and_calibration
Sticker_Detection_And_Calibration
p753
(dp754
g9
(lp755
sg11
(dp756
g4
(dp757
g14
g15
(g16
(I0
tp758
g4
tp759
Rp760
(I1
(I3
tp761
g24
I00
S'\xff\x80\x80'
p762
tp763
bsg29
g15
(g16
(I0
tp764
g4
tp765
Rp766
(I1
(I3
tp767
g24
I00
S'\x00\x80\x80'
p768
tp769
bssg36
(dp770
g14
g760
sg29
g766
ssg38
(dp771
g14
g760
sg29
g766
ssg40
(dp772
g14
g760
sg29
g766
ssg42
(dp773
g14
g760
sg29
g766
ssg44
(dp774
g14
g760
sg29
g766
sssg46
I0
sg47
g752
sg48
(lp775
sbsS'l2'
p776
(iclass_sticker_detection_and_calibration
Sticker_Detection_And_Calibration
p777
(dp778
g9
(lp779
sg11
(dp780
g4
(dp781
g14
g15
(g16
(I0
tp782
g4
tp783
Rp784
(I1
(I3
tp785
g24
I00
S'\xff\x80\x80'
p786
tp787
bsg29
g15
(g16
(I0
tp788
g4
tp789
Rp790
(I1
(I3
tp791
g24
I00
S'\x00\x80\x80'
p792
tp793
bssg36
(dp794
g14
g784
sg29
g790
ssg38
(dp795
g14
g784
sg29
g790
ssg40
(dp796
g14
g784
sg29
g790
ssg42
(dp797
g14
g784
sg29
g790
ssg44
(dp798
g14
g784
sg29
g790
sssg46
I0
sg47
g776
sg48
(lp799
sbsS'l3'
p800
(iclass_sticker_detection_and_calibration
Sticker_Detection_And_Calibration
p801
(dp802
g9
(lp803
sg11
(dp804
g4
(dp805
g14
g15
(g16
(I0
tp806
g4
tp807
Rp808
(I1
(I3
tp809
g24
I00
S'\xff\x80\x80'
p810
tp811
bsg29
g15
(g16
(I0
tp812
g4
tp813
Rp814
(I1
(I3
tp815
g24
I00
S'\x00\x80\x80'
p816
tp817
bssg36
(dp818
g14
g808
sg29
g814
ssg38
(dp819
g14
g808
sg29
g814
ssg40
(dp820
g14
g808
sg29
g814
ssg42
(dp821
g14
g808
sg29
g814
ssg44
(dp822
g14
g808
sg29
g814
sssg46
I0
sg47
g800
sg48
(lp823
sbsS'l1'
p824
(iclass_sticker_detection_and_calibration
Sticker_Detection_And_Calibration
p825
(dp826
g9
(lp827
sg11
(dp828
g4
(dp829
g14
g15
(g16
(I0
tp830
g4
tp831
Rp832
(I1
(I3
tp833
g24
I00
S'\xff\x80\x80'
p834
tp835
bsg29
g15
(g16
(I0
tp836
g4
tp837
Rp838
(I1
(I3
tp839
g24
I00
S'\x00\x80\x80'
p840
tp841
bssg36
(dp842
g14
g832
sg29
g838
ssg38
(dp843
g14
g832
sg29
g838
ssg40
(dp844
g14
g832
sg29
g838
ssg42
(dp845
g14
g832
sg29
g838
ssg44
(dp846
g14
g832
sg29
g838
sssg46
I0
sg47
g824
sg48
(lp847
sbsS'l8'
p848
(iclass_sticker_detection_and_calibration
Sticker_Detection_And_Calibration
p849
(dp850
g9
(lp851
sg11
(dp852
g4
(dp853
g14
g15
(g16
(I0
tp854
g4
tp855
Rp856
(I1
(I3
tp857
g24
I00
S'\xff\x80\x80'
p858
tp859
bsg29
g15
(g16
(I0
tp860
g4
tp861
Rp862
(I1
(I3
tp863
g24
I00
S'\x00\x80\x80'
p864
tp865
bssg36
(dp866
g14
g856
sg29
g862
ssg38
(dp867
g14
g856
sg29
g862
ssg40
(dp868
g14
g856
sg29
g862
ssg42
(dp869
g14
g856
sg29
g862
ssg44
(dp870
g14
g856
sg29
g862
sssg46
I0
sg47
g848
sg48
(lp871
sbsS'l9'
p872
(iclass_sticker_detection_and_calibration
Sticker_Detection_And_Calibration
p873
(dp874
g9
(lp875
sg11
(dp876
g4
(dp877
g14
g15
(g16
(I0
tp878
g4
tp879
Rp880
(I1
(I3
tp881
g24
I00
S'\xff\x80\x80'
p882
tp883
bsg29
g15
(g16
(I0
tp884
g4
tp885
Rp886
(I1
(I3
tp887
g24
I00
S'\x00\x80\x80'
p888
tp889
bssg36
(dp890
g14
g880
sg29
g886
ssg38
(dp891
g14
g880
sg29
g886
ssg40
(dp892
g14
g880
sg29
g886
ssg42
(dp893
g14
g880
sg29
g886
ssg44
(dp894
g14
g880
sg29
g886
sssg46
I0
sg47
g872
sg48
(lp895
sbssg42
(dp896
S'r4'
p897
(iclass_sticker_detection_and_calibration
Sticker_Detection_And_Calibration
p898
(dp899
g9
(lp900
sg11
(dp901
g4
(dp902
g14
g15
(g16
(I0
tp903
g4
tp904
Rp905
(I1
(I3
tp906
g24
I00
S'\xff\x80\x80'
p907
tp908
bsg29
g15
(g16
(I0
tp909
g4
tp910
Rp911
(I1
(I3
tp912
g24
I00
S'\x00\x80\x80'
p913
tp914
bssg36
(dp915
g14
g905
sg29
g911
ssg38
(dp916
g14
g905
sg29
g911
ssg40
(dp917
g14
g905
sg29
g911
ssg42
(dp918
g14
g905
sg29
g911
ssg44
(dp919
g14
g905
sg29
g911
sssg46
I0
sg47
g897
sg48
(lp920
sbsS'r5'
p921
(iclass_sticker_detection_and_calibration
Sticker_Detection_And_Calibration
p922
(dp923
g9
(lp924
sg11
(dp925
g4
(dp926
g14
g15
(g16
(I0
tp927
g4
tp928
Rp929
(I1
(I3
tp930
g24
I00
S'\xff\x80\x80'
p931
tp932
bsg29
g15
(g16
(I0
tp933
g4
tp934
Rp935
(I1
(I3
tp936
g24
I00
S'\x00\x80\x80'
p937
tp938
bssg36
(dp939
g14
g929
sg29
g935
ssg38
(dp940
g14
g929
sg29
g935
ssg40
(dp941
g14
g929
sg29
g935
ssg42
(dp942
g14
g929
sg29
g935
ssg44
(dp943
g14
g929
sg29
g935
sssg46
I0
sg47
g921
sg48
(lp944
sbsS'r6'
p945
(iclass_sticker_detection_and_calibration
Sticker_Detection_And_Calibration
p946
(dp947
g9
(lp948
sg11
(dp949
g4
(dp950
g14
g15
(g16
(I0
tp951
g4
tp952
Rp953
(I1
(I3
tp954
g24
I00
S'\xff\x80\x80'
p955
tp956
bsg29
g15
(g16
(I0
tp957
g4
tp958
Rp959
(I1
(I3
tp960
g24
I00
S'\x00\x80\x80'
p961
tp962
bssg36
(dp963
g14
g953
sg29
g959
ssg38
(dp964
g14
g953
sg29
g959
ssg40
(dp965
g14
g953
sg29
g959
ssg42
(dp966
g14
g953
sg29
g959
ssg44
(dp967
g14
g953
sg29
g959
sssg46
I0
sg47
g945
sg48
(lp968
sbsS'r7'
p969
(iclass_sticker_detection_and_calibration
Sticker_Detection_And_Calibration
p970
(dp971
g9
(lp972
sg11
(dp973
g4
(dp974
g14
g15
(g16
(I0
tp975
g4
tp976
Rp977
(I1
(I3
tp978
g24
I00
S'\xff\x80\x80'
p979
tp980
bsg29
g15
(g16
(I0
tp981
g4
tp982
Rp983
(I1
(I3
tp984
g24
I00
S'\x00\x80\x80'
p985
tp986
bssg36
(dp987
g14
g977
sg29
g983
ssg38
(dp988
g14
g977
sg29
g983
ssg40
(dp989
g14
g977
sg29
g983
ssg42
(dp990
g14
g977
sg29
g983
ssg44
(dp991
g14
g977
sg29
g983
sssg46
I0
sg47
g969
sg48
(lp992
sbsS'r1'
p993
(iclass_sticker_detection_and_calibration
Sticker_Detection_And_Calibration
p994
(dp995
g9
(lp996
sg11
(dp997
g4
(dp998
g14
g15
(g16
(I0
tp999
g4
tp1000
Rp1001
(I1
(I3
tp1002
g24
I00
S'\xff\x80\x80'
p1003
tp1004
bsg29
g15
(g16
(I0
tp1005
g4
tp1006
Rp1007
(I1
(I3
tp1008
g24
I00
S'\x00\x80\x80'
p1009
tp1010
bssg36
(dp1011
g14
g1001
sg29
g1007
ssg38
(dp1012
g14
g1001
sg29
g1007
ssg40
(dp1013
g14
g1001
sg29
g1007
ssg42
(dp1014
g14
g1001
sg29
g1007
ssg44
(dp1015
g14
g1001
sg29
g1007
sssg46
I0
sg47
g993
sg48
(lp1016
sbsS'r2'
p1017
(iclass_sticker_detection_and_calibration
Sticker_Detection_And_Calibration
p1018
(dp1019
g9
(lp1020
sg11
(dp1021
g4
(dp1022
g14
g15
(g16
(I0
tp1023
g4
tp1024
Rp1025
(I1
(I3
tp1026
g24
I00
S'\xff\x80\x80'
p1027
tp1028
bsg29
g15
(g16
(I0
tp1029
g4
tp1030
Rp1031
(I1
(I3
tp1032
g24
I00
S'\x00\x80\x80'
p1033
tp1034
bssg36
(dp1035
g14
g1025
sg29
g1031
ssg38
(dp1036
g14
g1025
sg29
g1031
ssg40
(dp1037
g14
g1025
sg29
g1031
ssg42
(dp1038
g14
g1025
sg29
g1031
ssg44
(dp1039
g14
g1025
sg29
g1031
sssg46
I0
sg47
g1017
sg48
(lp1040
sbsS'r3'
p1041
(iclass_sticker_detection_and_calibration
Sticker_Detection_And_Calibration
p1042
(dp1043
g9
(lp1044
sg11
(dp1045
g4
(dp1046
g14
g15
(g16
(I0
tp1047
g4
tp1048
Rp1049
(I1
(I3
tp1050
g24
I00
S'\xff\x80\x80'
p1051
tp1052
bsg29
g15
(g16
(I0
tp1053
g4
tp1054
Rp1055
(I1
(I3
tp1056
g24
I00
S'\x00\x80\x80'
p1057
tp1058
bssg36
(dp1059
g14
g1049
sg29
g1055
ssg38
(dp1060
g14
g1049
sg29
g1055
ssg40
(dp1061
g14
g1049
sg29
g1055
ssg42
(dp1062
g14
g1049
sg29
g1055
ssg44
(dp1063
g14
g1049
sg29
g1055
sssg46
I0
sg47
g1041
sg48
(lp1064
sbsS'r8'
p1065
(iclass_sticker_detection_and_calibration
Sticker_Detection_And_Calibration
p1066
(dp1067
g9
(lp1068
sg11
(dp1069
g4
(dp1070
g14
g15
(g16
(I0
tp1071
g4
tp1072
Rp1073
(I1
(I3
tp1074
g24
I00
S'\xff\x80\x80'
p1075
tp1076
bsg29
g15
(g16
(I0
tp1077
g4
tp1078
Rp1079
(I1
(I3
tp1080
g24
I00
S'\x00\x80\x80'
p1081
tp1082
bssg36
(dp1083
g14
g1073
sg29
g1079
ssg38
(dp1084
g14
g1073
sg29
g1079
ssg40
(dp1085
g14
g1073
sg29
g1079
ssg42
(dp1086
g14
g1073
sg29
g1079
ssg44
(dp1087
g14
g1073
sg29
g1079
sssg46
I0
sg47
g1065
sg48
(lp1088
sbsS'r9'
p1089
(iclass_sticker_detection_and_calibration
Sticker_Detection_And_Calibration
p1090
(dp1091
g9
(lp1092
sg11
(dp1093
g4
(dp1094
g14
g15
(g16
(I0
tp1095
g4
tp1096
Rp1097
(I1
(I3
tp1098
g24
I00
S'\xff\x80\x80'
p1099
tp1100
bsg29
g15
(g16
(I0
tp1101
g4
tp1102
Rp1103
(I1
(I3
tp1104
g24
I00
S'\x00\x80\x80'
p1105
tp1106
bssg36
(dp1107
g14
g1097
sg29
g1103
ssg38
(dp1108
g14
g1097
sg29
g1103
ssg40
(dp1109
g14
g1097
sg29
g1103
ssg42
(dp1110
g14
g1097
sg29
g1103
ssg44
(dp1111
g14
g1097
sg29
g1103
sssg46
I0
sg47
g1089
sg48
(lp1112
sbssg44
(dp1113
S'u9'
p1114
(iclass_sticker_detection_and_calibration
Sticker_Detection_And_Calibration
p1115
(dp1116
g9
(lp1117
sg11
(dp1118
g4
(dp1119
g14
g15
(g16
(I0
tp1120
g4
tp1121
Rp1122
(I1
(I3
tp1123
g24
I00
S'\xff\x80\x80'
p1124
tp1125
bsg29
g15
(g16
(I0
tp1126
g4
tp1127
Rp1128
(I1
(I3
tp1129
g24
I00
S'\x00\x80\x80'
p1130
tp1131
bssg36
(dp1132
g14
g1122
sg29
g1128
ssg38
(dp1133
g14
g1122
sg29
g1128
ssg40
(dp1134
g14
g1122
sg29
g1128
ssg42
(dp1135
g14
g1122
sg29
g1128
ssg44
(dp1136
g14
g1122
sg29
g1128
sssg46
I0
sg47
g1114
sg48
(lp1137
sbsS'u8'
p1138
(iclass_sticker_detection_and_calibration
Sticker_Detection_And_Calibration
p1139
(dp1140
g9
(lp1141
sg11
(dp1142
g4
(dp1143
g14
g15
(g16
(I0
tp1144
g4
tp1145
Rp1146
(I1
(I3
tp1147
g24
I00
S'\xff\x80\x80'
p1148
tp1149
bsg29
g15
(g16
(I0
tp1150
g4
tp1151
Rp1152
(I1
(I3
tp1153
g24
I00
S'\x00\x80\x80'
p1154
tp1155
bssg36
(dp1156
g14
g1146
sg29
g1152
ssg38
(dp1157
g14
g1146
sg29
g1152
ssg40
(dp1158
g14
g1146
sg29
g1152
ssg42
(dp1159
g14
g1146
sg29
g1152
ssg44
(dp1160
g14
g1146
sg29
g1152
sssg46
I0
sg47
g1138
sg48
(lp1161
sbsS'u5'
p1162
(iclass_sticker_detection_and_calibration
Sticker_Detection_And_Calibration
p1163
(dp1164
g9
(lp1165
sg11
(dp1166
g4
(dp1167
g14
g15
(g16
(I0
tp1168
g4
tp1169
Rp1170
(I1
(I3
tp1171
g24
I00
S'\xff\x80\x80'
p1172
tp1173
bsg29
g15
(g16
(I0
tp1174
g4
tp1175
Rp1176
(I1
(I3
tp1177
g24
I00
S'\x00\x80\x80'
p1178
tp1179
bssg36
(dp1180
g14
g1170
sg29
g1176
ssg38
(dp1181
g14
g1170
sg29
g1176
ssg40
(dp1182
g14
g1170
sg29
g1176
ssg42
(dp1183
g14
g1170
sg29
g1176
ssg44
(dp1184
g14
g1170
sg29
g1176
sssg46
I0
sg47
g1162
sg48
(lp1185
sbsS'u4'
p1186
(iclass_sticker_detection_and_calibration
Sticker_Detection_And_Calibration
p1187
(dp1188
g9
(lp1189
sg11
(dp1190
g4
(dp1191
g14
g15
(g16
(I0
tp1192
g4
tp1193
Rp1194
(I1
(I3
tp1195
g24
I00
S'\xff\x80\x80'
p1196
tp1197
bsg29
g15
(g16
(I0
tp1198
g4
tp1199
Rp1200
(I1
(I3
tp1201
g24
I00
S'\x00\x80\x80'
p1202
tp1203
bssg36
(dp1204
g14
g1194
sg29
g1200
ssg38
(dp1205
g14
g1194
sg29
g1200
ssg40
(dp1206
g14
g1194
sg29
g1200
ssg42
(dp1207
g14
g1194
sg29
g1200
ssg44
(dp1208
g14
g1194
sg29
g1200
sssg46
I0
sg47
g1186
sg48
(lp1209
sbsS'u7'
p1210
(iclass_sticker_detection_and_calibration
Sticker_Detection_And_Calibration
p1211
(dp1212
g9
(lp1213
sg11
(dp1214
g4
(dp1215
g14
g15
(g16
(I0
tp1216
g4
tp1217
Rp1218
(I1
(I3
tp1219
g24
I00
S'\xff\x80\x80'
p1220
tp1221
bsg29
g15
(g16
(I0
tp1222
g4
tp1223
Rp1224
(I1
(I3
tp1225
g24
I00
S'\x00\x80\x80'
p1226
tp1227
bssg36
(dp1228
g14
g1218
sg29
g1224
ssg38
(dp1229
g14
g1218
sg29
g1224
ssg40
(dp1230
g14
g1218
sg29
g1224
ssg42
(dp1231
g14
g1218
sg29
g1224
ssg44
(dp1232
g14
g1218
sg29
g1224
sssg46
I0
sg47
g1210
sg48
(lp1233
sbsS'u6'
p1234
(iclass_sticker_detection_and_calibration
Sticker_Detection_And_Calibration
p1235
(dp1236
g9
(lp1237
sg11
(dp1238
g4
(dp1239
g14
g15
(g16
(I0
tp1240
g4
tp1241
Rp1242
(I1
(I3
tp1243
g24
I00
S'\xff\x80\x80'
p1244
tp1245
bsg29
g15
(g16
(I0
tp1246
g4
tp1247
Rp1248
(I1
(I3
tp1249
g24
I00
S'\x00\x80\x80'
p1250
tp1251
bssg36
(dp1252
g14
g1242
sg29
g1248
ssg38
(dp1253
g14
g1242
sg29
g1248
ssg40
(dp1254
g14
g1242
sg29
g1248
ssg42
(dp1255
g14
g1242
sg29
g1248
ssg44
(dp1256
g14
g1242
sg29
g1248
sssg46
I0
sg47
g1234
sg48
(lp1257
sbsS'u1'
p1258
(iclass_sticker_detection_and_calibration
Sticker_Detection_And_Calibration
p1259
(dp1260
g9
(lp1261
sg11
(dp1262
g4
(dp1263
g14
g15
(g16
(I0
tp1264
g4
tp1265
Rp1266
(I1
(I3
tp1267
g24
I00
S'\xff\x80\x80'
p1268
tp1269
bsg29
g15
(g16
(I0
tp1270
g4
tp1271
Rp1272
(I1
(I3
tp1273
g24
I00
S'\x00\x80\x80'
p1274
tp1275
bssg36
(dp1276
g14
g1266
sg29
g1272
ssg38
(dp1277
g14
g1266
sg29
g1272
ssg40
(dp1278
g14
g1266
sg29
g1272
ssg42
(dp1279
g14
g1266
sg29
g1272
ssg44
(dp1280
g14
g1266
sg29
g1272
sssg46
I0
sg47
g1258
sg48
(lp1281
sbsS'u3'
p1282
(iclass_sticker_detection_and_calibration
Sticker_Detection_And_Calibration
p1283
(dp1284
g9
(lp1285
sg11
(dp1286
g4
(dp1287
g14
g15
(g16
(I0
tp1288
g4
tp1289
Rp1290
(I1
(I3
tp1291
g24
I00
S'\xff\x80\x80'
p1292
tp1293
bsg29
g15
(g16
(I0
tp1294
g4
tp1295
Rp1296
(I1
(I3
tp1297
g24
I00
S'\x00\x80\x80'
p1298
tp1299
bssg36
(dp1300
g14
g1290
sg29
g1296
ssg38
(dp1301
g14
g1290
sg29
g1296
ssg40
(dp1302
g14
g1290
sg29
g1296
ssg42
(dp1303
g14
g1290
sg29
g1296
ssg44
(dp1304
g14
g1290
sg29
g1296
sssg46
I0
sg47
g1282
sg48
(lp1305
sbsS'u2'
p1306
(iclass_sticker_detection_and_calibration
Sticker_Detection_And_Calibration
p1307
(dp1308
g9
(lp1309
sg11
(dp1310
g4
(dp1311
g14
g15
(g16
(I0
tp1312
g4
tp1313
Rp1314
(I1
(I3
tp1315
g24
I00
S'\xff\x80\x80'
p1316
tp1317
bsg29
g15
(g16
(I0
tp1318
g4
tp1319
Rp1320
(I1
(I3
tp1321
g24
I00
S'\x00\x80\x80'
p1322
tp1323
bssg36
(dp1324
g14
g1314
sg29
g1320
ssg38
(dp1325
g14
g1314
sg29
g1320
ssg40
(dp1326
g14
g1314
sg29
g1320
ssg42
(dp1327
g14
g1314
sg29
g1320
ssg44
(dp1328
g14
g1314
sg29
g1320
sssg46
I0
sg47
g1306
sg48
(lp1329
sbsssS'current_camera_number'
p1330
I0
sS'side_order'
p1331
S'burfdl'
p1332
sS'current_polygon'
p1333
g461
sS'current_polygon_address_number'
p1334
I1
sS'current_side'
p1335
g38
sS'current_polygon_type'
p1336
S'standard'
p1337
sS'sides_dictionary'
p1338
(dp1339
g4
I1
sg36
I0
sg38
I0
sg40
I0
sg42
I1
sg44
I1
ssS'current_polygon_address'
p1340
S'f1'
p1341
sb.