(dp0
S'b'
p1
(dp2
S'upper_limit'
p3
(lp4
cnumpy.core.multiarray
scalar
p5
(cnumpy
dtype
p6
(S'u1'
p7
I0
I1
tp8
Rp9
(I3
S'|'
p10
NNNI-1
I-1
I0
tp11
bS'\xc0'
p12
tp13
Rp14
ag5
(g9
S's'
p15
tp16
Rp17
ag5
(g9
S'['
p18
tp19
Rp20
asS'lower_limit'
p21
(lp22
g5
(g9
S'\xb3'
p23
tp24
Rp25
ag5
(g9
S'o'
p26
tp27
Rp28
ag5
(g9
S'W'
p29
tp30
Rp31
assS'd'
p32
(dp33
g3
(lp34
g5
(g9
S'\xef'
p35
tp36
Rp37
ag5
(g9
S'r'
p38
tp39
Rp40
ag5
(g9
S'\xcb'
p41
tp42
Rp43
asg21
(lp44
g5
(g9
S'\xe0'
p45
tp46
Rp47
ag5
(g9
g26
tp48
Rp49
ag5
(g9
S'\xc6'
p50
tp51
Rp52
assS'f'
p53
(dp54
g3
(lp55
g5
(g9
S'\xd0'
p56
tp57
Rp58
ag5
(g9
S'B'
p59
tp60
Rp61
ag5
(g9
S'\xa8'
p62
tp63
Rp64
asg21
(lp65
g5
(g9
g12
tp66
Rp67
ag5
(g9
S'>'
p68
tp69
Rp70
ag5
(g9
S'\x9f'
p71
tp72
Rp73
assS'l'
p74
(dp75
g3
(lp76
g5
(g9
g56
tp77
Rp78
ag5
(g9
S'\x9b'
p79
tp80
Rp81
ag5
(g9
S'\xd3'
p82
tp83
Rp84
asg21
(lp85
g5
(g9
S'\xbc'
p86
tp87
Rp88
ag5
(g9
S'\x89'
p89
tp90
Rp91
ag5
(g9
S'\xce'
p92
tp93
Rp94
assS'r'
p95
(dp96
g3
(lp97
g5
(g9
S'\xa5'
p98
tp99
Rp100
ag5
(g9
S'\xc7'
p101
tp102
Rp103
ag5
(g9
S'\x9c'
p104
tp105
Rp106
asg21
(lp107
g5
(g9
S'\x96'
p108
tp109
Rp110
ag5
(g9
S'\xb8'
p111
tp112
Rp113
ag5
(g9
S'\x95'
p114
tp115
Rp116
assS'u'
p117
(dp118
g3
(lp119
g5
(g9
S'\xf3'
p120
tp121
Rp122
ag5
(g9
S'\x85'
p123
tp124
Rp125
ag5
(g9
S'y'
p126
tp127
Rp128
asg21
(lp129
g5
(g9
S'\xe6'
p130
tp131
Rp132
ag5
(g9
S'\x82'
p133
tp134
Rp135
ag5
(g9
S'u'
p136
tp137
Rp138
ass.