(dp0
S'b'
p1
(dp2
S'upper_limit'
p3
(lp4
cnumpy.core.multiarray
scalar
p5
(cnumpy
dtype
p6
(S'u1'
p7
I0
I1
tp8
Rp9
(I3
S'|'
p10
NNNI-1
I-1
I0
tp11
bS'\xa7'
p12
tp13
Rp14
ag5
(g9
g12
tp15
Rp16
ag5
(g9
S'\xc8'
p17
tp18
Rp19
asS'lower_limit'
p20
(lp21
g5
(g9
S'\xa1'
p22
tp23
Rp24
ag5
(g9
S'\xa3'
p25
tp26
Rp27
ag5
(g9
S'\xc6'
p28
tp29
Rp30
assS'd'
p31
(dp32
g3
(lp33
g5
(g9
S'\xc1'
p34
tp35
Rp36
ag5
(g9
S'm'
p37
tp38
Rp39
ag5
(g9
S'\xc7'
p40
tp41
Rp42
asg20
(lp43
g5
(g9
S'\xbb'
p44
tp45
Rp46
ag5
(g9
S'j'
p47
tp48
Rp49
ag5
(g9
S'\xc4'
p50
tp51
Rp52
assS'f'
p53
(dp54
g3
(lp55
g5
(g9
S'\x89'
p56
tp57
Rp58
ag5
(g9
g28
tp59
Rp60
ag5
(g9
S'\xb3'
p61
tp62
Rp63
asg20
(lp64
g5
(g9
S'\x82'
p65
tp66
Rp67
ag5
(g9
g34
tp68
Rp69
ag5
(g9
S'\xaa'
p70
tp71
Rp72
assS'l'
p73
(dp74
g3
(lp75
g5
(g9
S'\x8f'
p76
tp77
Rp78
ag5
(g9
S'N'
p79
tp80
Rp81
ag5
(g9
S'\xa8'
p82
tp83
Rp84
asg20
(lp85
g5
(g9
S'\x88'
p86
tp87
Rp88
ag5
(g9
S'K'
p89
tp90
Rp91
ag5
(g9
g25
tp92
Rp93
assS'r'
p94
(dp95
g3
(lp96
g5
(g9
S'\x85'
p97
tp98
Rp99
ag5
(g9
S'v'
p100
tp101
Rp102
ag5
(g9
S'e'
p103
tp104
Rp105
asg20
(lp106
g5
(g9
S'\x80'
p107
tp108
Rp109
ag5
(g9
S's'
p110
tp111
Rp112
ag5
(g9
S'`'
p113
tp114
Rp115
assS'u'
p116
(dp117
g3
(lp118
g5
(g9
S'\xb8'
p119
tp120
Rp121
ag5
(g9
S'\x83'
p122
tp123
Rp124
ag5
(g9
S'y'
p125
tp126
Rp127
asg20
(lp128
g5
(g9
g61
tp129
Rp130
ag5
(g9
S'\x7f'
p131
tp132
Rp133
ag5
(g9
g100
tp134
Rp135
ass.