(dp0
S'b'
p1
(dp2
S'upper_limit'
p3
(lp4
cnumpy.core.multiarray
scalar
p5
(cnumpy
dtype
p6
(S'u1'
p7
I0
I1
tp8
Rp9
(I3
S'|'
p10
NNNI-1
I-1
I0
tp11
bS'\x82'
p12
tp13
Rp14
ag5
(g9
S'{'
p15
tp16
Rp17
ag5
(g9
S'_'
p18
tp19
Rp20
asS'lower_limit'
p21
(lp22
g5
(g9
S'm'
p23
tp24
Rp25
ag5
(g9
S'v'
p26
tp27
Rp28
ag5
(g9
S'Y'
p29
tp30
Rp31
assS'd'
p32
(dp33
g3
(lp34
g5
(g9
S'\xcc'
p35
tp36
Rp37
ag5
(g9
S'o'
p38
tp39
Rp40
ag5
(g9
g35
tp41
Rp42
asg21
(lp43
g5
(g9
S'\xbd'
p44
tp45
Rp46
ag5
(g9
S'k'
p47
tp48
Rp49
ag5
(g9
S'\xc7'
p50
tp51
Rp52
assS'f'
p53
(dp54
g3
(lp55
g5
(g9
S'\x93'
p56
tp57
Rp58
ag5
(g9
S'V'
p59
tp60
Rp61
ag5
(g9
S'\xae'
p62
tp63
Rp64
asg21
(lp65
g5
(g9
g18
tp66
Rp67
ag5
(g9
S'G'
p68
tp69
Rp70
ag5
(g9
S'\xa4'
p71
tp72
Rp73
assS'l'
p74
(dp75
g3
(lp76
g5
(g9
g62
tp77
Rp78
ag5
(g9
g62
tp79
Rp80
ag5
(g9
S'\xcb'
p81
tp82
Rp83
asg21
(lp84
g5
(g9
S'\xa7'
p85
tp86
Rp87
ag5
(g9
S'\xa8'
p88
tp89
Rp90
ag5
(g9
S'\xc9'
p91
tp92
Rp93
assS'r'
p94
(dp95
g3
(lp96
g5
(g9
S'\x8c'
p97
tp98
Rp99
ag5
(g9
S'\xce'
p100
tp101
Rp102
ag5
(g9
S'\xb5'
p103
tp104
Rp105
asg21
(lp106
g5
(g9
g12
tp107
Rp108
ag5
(g9
S'\xca'
p109
tp110
Rp111
ag5
(g9
g62
tp112
Rp113
assS'u'
p114
(dp115
g3
(lp116
g5
(g9
S'\xb4'
p117
tp118
Rp119
ag5
(g9
S'\x84'
p120
tp121
Rp122
ag5
(g9
S'u'
p123
tp124
Rp125
asg21
(lp126
g5
(g9
S'\x95'
p127
tp128
Rp129
ag5
(g9
S'\x80'
p130
tp131
Rp132
ag5
(g9
S'q'
p133
tp134
Rp135
ass.