(dp0
S'b'
p1
(dp2
S'upper_limit'
p3
(lp4
cnumpy.core.multiarray
scalar
p5
(cnumpy
dtype
p6
(S'u1'
p7
I0
I1
tp8
Rp9
(I3
S'|'
p10
NNNI-1
I-1
I0
tp11
bS'\xb9'
p12
tp13
Rp14
ag5
(g9
S'\xa2'
p15
tp16
Rp17
ag5
(g9
S'\xcd'
p18
tp19
Rp20
asS'lower_limit'
p21
(lp22
g5
(g9
S'\xb5'
p23
tp24
Rp25
ag5
(g9
S'\x9e'
p26
tp27
Rp28
ag5
(g9
S'\xcc'
p29
tp30
Rp31
assS'd'
p32
(dp33
g3
(lp34
g5
(g9
S'\xe9'
p35
tp36
Rp37
ag5
(g9
S'p'
p38
tp39
Rp40
ag5
(g9
g18
tp41
Rp42
asg21
(lp43
g5
(g9
S'\xe0'
p44
tp45
Rp46
ag5
(g9
S'l'
p47
tp48
Rp49
ag5
(g9
S'\xc6'
p50
tp51
Rp52
assS'f'
p53
(dp54
g3
(lp55
g5
(g9
S'\x91'
p56
tp57
Rp58
ag5
(g9
S'\xcf'
p59
tp60
Rp61
ag5
(g9
S'\x9c'
p62
tp63
Rp64
asg21
(lp65
g5
(g9
S'\x8d'
p66
tp67
Rp68
ag5
(g9
g29
tp69
Rp70
ag5
(g9
S'\x93'
p71
tp72
Rp73
assS'l'
p74
(dp75
g3
(lp76
g5
(g9
S'\xae'
p77
tp78
Rp79
ag5
(g9
S'E'
p80
tp81
Rp82
ag5
(g9
S'\xa8'
p83
tp84
Rp85
asg21
(lp86
g5
(g9
S'\xa5'
p87
tp88
Rp89
ag5
(g9
S'B'
p90
tp91
Rp92
ag5
(g9
g15
tp93
Rp94
assS'r'
p95
(dp96
g3
(lp97
g5
(g9
S'\x9b'
p98
tp99
Rp100
ag5
(g9
S'x'
p101
tp102
Rp103
ag5
(g9
S'X'
p104
tp105
Rp106
asg21
(lp107
g5
(g9
g56
tp108
Rp109
ag5
(g9
S'u'
p110
tp111
Rp112
ag5
(g9
S'U'
p113
tp114
Rp115
assS'u'
p116
(dp117
g3
(lp118
g5
(g9
S'\xd2'
p119
tp120
Rp121
ag5
(g9
S'\x84'
p122
tp123
Rp124
ag5
(g9
S's'
p125
tp126
Rp127
asg21
(lp128
g5
(g9
S'\xcb'
p129
tp130
Rp131
ag5
(g9
S'\x81'
p132
tp133
Rp134
ag5
(g9
S'o'
p135
tp136
Rp137
ass.