(dp0
S'b'
p1
(dp2
S'upper_limit'
p3
(lp4
cnumpy.core.multiarray
scalar
p5
(cnumpy
dtype
p6
(S'u1'
p7
I0
I1
tp8
Rp9
(I3
S'|'
p10
NNNI-1
I-1
I0
tp11
bS'a'
p12
tp13
Rp14
ag5
(g9
S'\xac'
p15
tp16
Rp17
ag5
(g9
S'\xb1'
p18
tp19
Rp20
asS'lower_limit'
p21
(lp22
g5
(g9
S'M'
p23
tp24
Rp25
ag5
(g9
S'\xa6'
p26
tp27
Rp28
ag5
(g9
S'\xaa'
p29
tp30
Rp31
assS'd'
p32
(dp33
g3
(lp34
g5
(g9
S'\x97'
p35
tp36
Rp37
ag5
(g9
S'v'
p38
tp39
Rp40
ag5
(g9
S'\xbb'
p41
tp42
Rp43
asg21
(lp44
g5
(g9
S'\x7f'
p45
tp46
Rp47
ag5
(g9
S'q'
p48
tp49
Rp50
ag5
(g9
S'\xb4'
p51
tp52
Rp53
assS'f'
p54
(dp55
g3
(lp56
g5
(g9
S'N'
p57
tp58
Rp59
ag5
(g9
S'\xb2'
p60
tp61
Rp62
ag5
(g9
S'\xa9'
p63
tp64
Rp65
asg21
(lp66
g5
(g9
S'5'
p67
tp68
Rp69
ag5
(g9
S'\xa5'
p70
tp71
Rp72
ag5
(g9
S'\x9c'
p73
tp74
Rp75
assS'l'
p76
(dp77
g3
(lp78
g5
(g9
S'c'
p79
tp80
Rp81
ag5
(g9
S'\\'
p82
tp83
Rp84
ag5
(g9
S'\xa2'
p85
tp86
Rp87
asg21
(lp88
g5
(g9
S'L'
p89
tp90
Rp91
ag5
(g9
S'U'
p92
tp93
Rp94
ag5
(g9
g73
tp95
Rp96
assS'r'
p97
(dp98
g3
(lp99
g5
(g9
S'Q'
p100
tp101
Rp102
ag5
(g9
S'\x85'
p103
tp104
Rp105
ag5
(g9
g79
tp106
Rp107
asg21
(lp108
g5
(g9
S'8'
p109
tp110
Rp111
ag5
(g9
S'~'
p112
tp113
Rp114
ag5
(g9
S'^'
p115
tp116
Rp117
assS'u'
p118
(dp119
g3
(lp120
g5
(g9
S's'
p121
tp122
Rp123
ag5
(g9
S'\x88'
p124
tp125
Rp126
ag5
(g9
S'u'
p127
tp128
Rp129
asg21
(lp130
g5
(g9
S'Y'
p131
tp132
Rp133
ag5
(g9
S'\x83'
p134
tp135
Rp136
ag5
(g9
S'p'
p137
tp138
Rp139
ass.