(dp0
S'b'
p1
(dp2
S'upper_limit'
p3
(lp4
cnumpy.core.multiarray
scalar
p5
(cnumpy
dtype
p6
(S'u1'
p7
I0
I1
tp8
Rp9
(I3
S'|'
p10
NNNI-1
I-1
I0
tp11
bS'\x96'
p12
tp13
Rp14
ag5
(g9
S'z'
p15
tp16
Rp17
ag5
(g9
S'Y'
p18
tp19
Rp20
asS'lower_limit'
p21
(lp22
g5
(g9
S'\x8a'
p23
tp24
Rp25
ag5
(g9
S'v'
p26
tp27
Rp28
ag5
(g9
S'S'
p29
tp30
Rp31
assS'd'
p32
(dp33
g3
(lp34
g5
(g9
S'\xe9'
p35
tp36
Rp37
ag5
(g9
S'n'
p38
tp39
Rp40
ag5
(g9
S'\xd3'
p41
tp42
Rp43
asg21
(lp44
g5
(g9
S'\xdc'
p45
tp46
Rp47
ag5
(g9
S'k'
p48
tp49
Rp50
ag5
(g9
S'\xcd'
p51
tp52
Rp53
assS'f'
p54
(dp55
g3
(lp56
g5
(g9
S'\xad'
p57
tp58
Rp59
ag5
(g9
S'E'
p60
tp61
Rp62
ag5
(g9
S'\xae'
p63
tp64
Rp65
asg21
(lp66
g5
(g9
S'\x9e'
p67
tp68
Rp69
ag5
(g9
S'A'
p70
tp71
Rp72
ag5
(g9
S'\xa8'
p73
tp74
Rp75
assS'l'
p76
(dp77
g3
(lp78
g5
(g9
S'\xb8'
p79
tp80
Rp81
ag5
(g9
S'\xa4'
p82
tp83
Rp84
ag5
(g9
g51
tp85
Rp86
asg21
(lp87
g5
(g9
S'\xb2'
p88
tp89
Rp90
ag5
(g9
g67
tp91
Rp92
ag5
(g9
S'\xcc'
p93
tp94
Rp95
assS'r'
p96
(dp97
g3
(lp98
g5
(g9
S'\x8e'
p99
tp100
Rp101
ag5
(g9
S'\xce'
p102
tp103
Rp104
ag5
(g9
g88
tp105
Rp106
asg21
(lp107
g5
(g9
S'\x8b'
p108
tp109
Rp110
ag5
(g9
g93
tp111
Rp112
ag5
(g9
g73
tp113
Rp114
assS'u'
p115
(dp116
g3
(lp117
g5
(g9
S'\xd1'
p118
tp119
Rp120
ag5
(g9
S'\x85'
p121
tp122
Rp123
ag5
(g9
S's'
p124
tp125
Rp126
asg21
(lp127
g5
(g9
S'\xc3'
p128
tp129
Rp130
ag5
(g9
S'\x80'
p131
tp132
Rp133
ag5
(g9
S'p'
p134
tp135
Rp136
ass.