(dp0
S'b'
p1
(dp2
S'upper_limit'
p3
(lp4
cnumpy.core.multiarray
scalar
p5
(cnumpy
dtype
p6
(S'u1'
p7
I0
I1
tp8
Rp9
(I3
S'|'
p10
NNNI-1
I-1
I0
tp11
bS'\x93'
p12
tp13
Rp14
ag5
(g9
S'\xa2'
p15
tp16
Rp17
ag5
(g9
S'\xc1'
p18
tp19
Rp20
asS'lower_limit'
p21
(lp22
g5
(g9
S'\x84'
p23
tp24
Rp25
ag5
(g9
S'\x9d'
p26
tp27
Rp28
ag5
(g9
S'\xbc'
p29
tp30
Rp31
assS'd'
p32
(dp33
g3
(lp34
g5
(g9
S'\x9e'
p35
tp36
Rp37
ag5
(g9
S'r'
p38
tp39
Rp40
ag5
(g9
S'\xbd'
p41
tp42
Rp43
asg21
(lp44
g5
(g9
S'\x90'
p45
tp46
Rp47
ag5
(g9
S'n'
p48
tp49
Rp50
ag5
(g9
S'\xb8'
p51
tp52
Rp53
assS'f'
p54
(dp55
g3
(lp56
g5
(g9
S'x'
p57
tp58
Rp59
ag5
(g9
g29
tp60
Rp61
ag5
(g9
S'\xaf'
p62
tp63
Rp64
asg21
(lp65
g5
(g9
S'j'
p66
tp67
Rp68
ag5
(g9
S'\xb4'
p69
tp70
Rp71
ag5
(g9
S'\xa8'
p72
tp73
Rp74
assS'l'
p75
(dp76
g3
(lp77
g5
(g9
S'w'
p78
tp79
Rp80
ag5
(g9
S'W'
p81
tp82
Rp83
ag5
(g9
S'\xa6'
p84
tp85
Rp86
asg21
(lp87
g5
(g9
S'i'
p88
tp89
Rp90
ag5
(g9
S'S'
p91
tp92
Rp93
ag5
(g9
S'\xa1'
p94
tp95
Rp96
assS'r'
p97
(dp98
g3
(lp99
g5
(g9
S'm'
p100
tp101
Rp102
ag5
(g9
g57
tp103
Rp104
ag5
(g9
S'p'
p105
tp106
Rp107
asg21
(lp108
g5
(g9
S'_'
p109
tp110
Rp111
ag5
(g9
S't'
p112
tp113
Rp114
ag5
(g9
g88
tp115
Rp116
assS'u'
p117
(dp118
g3
(lp119
g5
(g9
g94
tp120
Rp121
ag5
(g9
S'\x81'
p122
tp123
Rp124
ag5
(g9
S'\x80'
p125
tp126
Rp127
asg21
(lp128
g5
(g9
S'\x92'
p129
tp130
Rp131
ag5
(g9
S'}'
p132
tp133
Rp134
ag5
(g9
S'{'
p135
tp136
Rp137
ass.