(dp0
S'b'
p1
(dp2
S'upper_limit'
p3
(lp4
cnumpy.core.multiarray
scalar
p5
(cnumpy
dtype
p6
(S'u1'
p7
I0
I1
tp8
Rp9
(I3
S'|'
p10
NNNI-1
I-1
I0
tp11
bS'\x88'
p12
tp13
Rp14
ag5
(g9
S'\xb0'
p15
tp16
Rp17
ag5
(g9
S'\xbf'
p18
tp19
Rp20
asS'lower_limit'
p21
(lp22
g5
(g9
S'\x80'
p23
tp24
Rp25
ag5
(g9
S'\xab'
p26
tp27
Rp28
ag5
(g9
S'\xbc'
p29
tp30
Rp31
assS'd'
p32
(dp33
g3
(lp34
g5
(g9
S'\xad'
p35
tp36
Rp37
ag5
(g9
S'r'
p38
tp39
Rp40
ag5
(g9
g18
tp41
Rp42
asg21
(lp43
g5
(g9
S'\xa5'
p44
tp45
Rp46
ag5
(g9
S'n'
p47
tp48
Rp49
ag5
(g9
S'\xbb'
p50
tp51
Rp52
assS'f'
p53
(dp54
g3
(lp55
g5
(g9
S'w'
p56
tp57
Rp58
ag5
(g9
S'\xc4'
p59
tp60
Rp61
ag5
(g9
S'\xb5'
p62
tp63
Rp64
asg21
(lp65
g5
(g9
S'p'
p66
tp67
Rp68
ag5
(g9
g18
tp69
Rp70
ag5
(g9
S'\xa7'
p71
tp72
Rp73
assS'l'
p74
(dp75
g3
(lp76
g5
(g9
S'e'
p77
tp78
Rp79
ag5
(g9
S'X'
p80
tp81
Rp82
ag5
(g9
S'\xa2'
p83
tp84
Rp85
asg21
(lp86
g5
(g9
S'^'
p87
tp88
Rp89
ag5
(g9
S'T'
p90
tp91
Rp92
ag5
(g9
S'\x9d'
p93
tp94
Rp95
assS'r'
p96
(dp97
g3
(lp98
g5
(g9
S'c'
p99
tp100
Rp101
ag5
(g9
g23
tp102
Rp103
ag5
(g9
S'_'
p104
tp105
Rp106
asg21
(lp107
g5
(g9
S'Z'
p108
tp109
Rp110
ag5
(g9
S'|'
p111
tp112
Rp113
ag5
(g9
S'['
p114
tp115
Rp116
assS'u'
p117
(dp118
g3
(lp119
g5
(g9
S'\xa1'
p120
tp121
Rp122
ag5
(g9
S'\x83'
p123
tp124
Rp125
ag5
(g9
S'v'
p126
tp127
Rp128
asg21
(lp129
g5
(g9
S'\x9a'
p130
tp131
Rp132
ag5
(g9
g23
tp133
Rp134
ag5
(g9
S's'
p135
tp136
Rp137
ass.