(dp0
S'b'
p1
(dp2
S'upper_limit'
p3
(lp4
cnumpy.core.multiarray
scalar
p5
(cnumpy
dtype
p6
(S'u1'
p7
I0
I1
tp8
Rp9
(I3
S'|'
p10
NNNI-1
I-1
I0
tp11
bS'\xa5'
p12
tp13
Rp14
ag5
(g9
S'\xb0'
p15
tp16
Rp17
ag5
(g9
S'\xc8'
p18
tp19
Rp20
asS'lower_limit'
p21
(lp22
g5
(g9
S'\x9a'
p23
tp24
Rp25
ag5
(g9
S'\xad'
p26
tp27
Rp28
ag5
(g9
S'\xc5'
p29
tp30
Rp31
assS'd'
p32
(dp33
g3
(lp34
g5
(g9
S'\xdb'
p35
tp36
Rp37
ag5
(g9
S'q'
p38
tp39
Rp40
ag5
(g9
S'\xc9'
p41
tp42
Rp43
asg21
(lp44
g5
(g9
S'\xc7'
p45
tp46
Rp47
ag5
(g9
S'm'
p48
tp49
Rp50
ag5
(g9
S'\xbe'
p51
tp52
Rp53
assS'f'
p54
(dp55
g3
(lp56
g5
(g9
S'|'
p57
tp58
Rp59
ag5
(g9
g18
tp60
Rp61
ag5
(g9
S'\xb6'
p62
tp63
Rp64
asg21
(lp65
g5
(g9
g38
tp66
Rp67
ag5
(g9
S'\xc2'
p68
tp69
Rp70
ag5
(g9
g15
tp71
Rp72
assS'l'
p73
(dp74
g3
(lp75
g5
(g9
S'\x9b'
p76
tp77
Rp78
ag5
(g9
S'K'
p79
tp80
Rp81
ag5
(g9
S'\xa6'
p82
tp83
Rp84
asg21
(lp85
g5
(g9
S'\x8f'
p86
tp87
Rp88
ag5
(g9
S'G'
p89
tp90
Rp91
ag5
(g9
S'\xa0'
p92
tp93
Rp94
assS'r'
p95
(dp96
g3
(lp97
g5
(g9
S'\x85'
p98
tp99
Rp100
ag5
(g9
S'z'
p101
tp102
Rp103
ag5
(g9
S'^'
p104
tp105
Rp106
asg21
(lp107
g5
(g9
S'x'
p108
tp109
Rp110
ag5
(g9
S'v'
p111
tp112
Rp113
ag5
(g9
S'Z'
p114
tp115
Rp116
assS'u'
p117
(dp118
g3
(lp119
g5
(g9
S'\xb7'
p120
tp121
Rp122
ag5
(g9
S'\x89'
p123
tp124
Rp125
ag5
(g9
S's'
p126
tp127
Rp128
asg21
(lp129
g5
(g9
S'\xaa'
p130
tp131
Rp132
ag5
(g9
g98
tp133
Rp134
ag5
(g9
g38
tp135
Rp136
ass.