(dp0
S'b'
p1
(dp2
S'upper_limit'
p3
(lp4
cnumpy.core.multiarray
scalar
p5
(cnumpy
dtype
p6
(S'u1'
p7
I0
I1
tp8
Rp9
(I3
S'|'
p10
NNNI-1
I-1
I0
tp11
bS'\x88'
p12
tp13
Rp14
ag5
(g9
S'~'
p15
tp16
Rp17
ag5
(g9
S'c'
p18
tp19
Rp20
asS'lower_limit'
p21
(lp22
g5
(g9
S'\x81'
p23
tp24
Rp25
ag5
(g9
S'z'
p26
tp27
Rp28
ag5
(g9
S'`'
p29
tp30
Rp31
assS'd'
p32
(dp33
g3
(lp34
g5
(g9
S'\xc5'
p35
tp36
Rp37
ag5
(g9
S'q'
p38
tp39
Rp40
ag5
(g9
S'\xbe'
p41
tp42
Rp43
asg21
(lp44
g5
(g9
S'\xbb'
p45
tp46
Rp47
ag5
(g9
S'n'
p48
tp49
Rp50
ag5
(g9
S'\xb6'
p51
tp52
Rp53
assS'f'
p54
(dp55
g3
(lp56
g5
(g9
S'\x98'
p57
tp58
Rp59
ag5
(g9
S'_'
p60
tp61
Rp62
ag5
(g9
g57
tp63
Rp64
asg21
(lp65
g5
(g9
S'\x86'
p66
tp67
Rp68
ag5
(g9
S'Z'
p69
tp70
Rp71
ag5
(g9
S'\x91'
p72
tp73
Rp74
assS'l'
p75
(dp76
g3
(lp77
g5
(g9
S'\xa6'
p78
tp79
Rp80
ag5
(g9
S'\xae'
p81
tp82
Rp83
ag5
(g9
g35
tp84
Rp85
asg21
(lp86
g5
(g9
S'\x9c'
p87
tp88
Rp89
ag5
(g9
S'\xaa'
p90
tp91
Rp92
ag5
(g9
S'\xc0'
p93
tp94
Rp95
assS'r'
p96
(dp97
g3
(lp98
g5
(g9
S'\x8f'
p99
tp100
Rp101
ag5
(g9
S'\xcc'
p102
tp103
Rp104
ag5
(g9
S'\xa1'
p105
tp106
Rp107
asg21
(lp108
g5
(g9
g66
tp109
Rp110
ag5
(g9
g35
tp111
Rp112
ag5
(g9
S'\x99'
p113
tp114
Rp115
assS'u'
p116
(dp117
g3
(lp118
g5
(g9
S'\xb3'
p119
tp120
Rp121
ag5
(g9
g23
tp122
Rp123
ag5
(g9
S'|'
p124
tp125
Rp126
asg21
(lp127
g5
(g9
S'\xa8'
p128
tp129
Rp130
ag5
(g9
g15
tp131
Rp132
ag5
(g9
S'y'
p133
tp134
Rp135
ass.