(dp0
S'b'
p1
(dp2
S'upper_limit'
p3
(lp4
cnumpy.core.multiarray
scalar
p5
(cnumpy
dtype
p6
(S'u1'
p7
I0
I1
tp8
Rp9
(I3
S'|'
p10
NNNI-1
I-1
I0
tp11
bS'i'
p12
tp13
Rp14
ag5
(g9
S'\x80'
p15
tp16
Rp17
ag5
(g9
S'a'
p18
tp19
Rp20
asS'lower_limit'
p21
(lp22
g5
(g9
S'`'
p23
tp24
Rp25
ag5
(g9
S'|'
p26
tp27
Rp28
ag5
(g9
S']'
p29
tp30
Rp31
assS'd'
p32
(dp33
g3
(lp34
g5
(g9
S'\xc8'
p35
tp36
Rp37
ag5
(g9
S't'
p38
tp39
Rp40
ag5
(g9
S'\xc1'
p41
tp42
Rp43
asg21
(lp44
g5
(g9
S'\xbe'
p45
tp46
Rp47
ag5
(g9
S'p'
p48
tp49
Rp50
ag5
(g9
S'\xbb'
p51
tp52
Rp53
assS'f'
p54
(dp55
g3
(lp56
g5
(g9
S'\x90'
p57
tp58
Rp59
ag5
(g9
S'T'
p60
tp61
Rp62
ag5
(g9
S'\x9d'
p63
tp64
Rp65
asg21
(lp66
g5
(g9
S'\x88'
p67
tp68
Rp69
ag5
(g9
S'P'
p70
tp71
Rp72
ag5
(g9
S'\x98'
p73
tp74
Rp75
assS'l'
p76
(dp77
g3
(lp78
g5
(g9
S'\xa3'
p79
tp80
Rp81
ag5
(g9
S'\xb5'
p82
tp83
Rp84
ag5
(g9
g35
tp85
Rp86
asg21
(lp87
g5
(g9
S'\x9c'
p88
tp89
Rp90
ag5
(g9
S'\xb1'
p91
tp92
Rp93
ag5
(g9
S'\xc6'
p94
tp95
Rp96
assS'r'
p97
(dp98
g3
(lp99
g5
(g9
S'x'
p100
tp101
Rp102
ag5
(g9
g94
tp103
Rp104
ag5
(g9
S'\xa9'
p105
tp106
Rp107
asg21
(lp108
g5
(g9
g12
tp109
Rp110
ag5
(g9
g45
tp111
Rp112
ag5
(g9
S'\x9e'
p113
tp114
Rp115
assS'u'
p116
(dp117
g3
(lp118
g5
(g9
S'\xbf'
p119
tp120
Rp121
ag5
(g9
S'\x82'
p122
tp123
Rp124
ag5
(g9
g26
tp125
Rp126
asg21
(lp127
g5
(g9
g82
tp128
Rp129
ag5
(g9
S'~'
p130
tp131
Rp132
ag5
(g9
S'y'
p133
tp134
Rp135
ass.