(dp0
S'b'
p1
(dp2
S'upper_limit'
p3
(lp4
cnumpy.core.multiarray
scalar
p5
(cnumpy
dtype
p6
(S'u1'
p7
I0
I1
tp8
Rp9
(I3
S'|'
p10
NNNI-1
I-1
I0
tp11
bS'\xa7'
p12
tp13
Rp14
ag5
(g9
S'\xb3'
p15
tp16
Rp17
ag5
(g9
S'\xc9'
p18
tp19
Rp20
asS'lower_limit'
p21
(lp22
g5
(g9
S'\xa0'
p23
tp24
Rp25
ag5
(g9
S'\xaf'
p26
tp27
Rp28
ag5
(g9
S'\xc7'
p29
tp30
Rp31
assS'd'
p32
(dp33
g3
(lp34
g5
(g9
S'\xca'
p35
tp36
Rp37
ag5
(g9
S'o'
p38
tp39
Rp40
ag5
(g9
S'\xc4'
p41
tp42
Rp43
asg21
(lp44
g5
(g9
S'\xbe'
p45
tp46
Rp47
ag5
(g9
S'k'
p48
tp49
Rp50
ag5
(g9
g45
tp51
Rp52
assS'f'
p53
(dp54
g3
(lp55
g5
(g9
S'\x8b'
p56
tp57
Rp58
ag5
(g9
S'\xce'
p59
tp60
Rp61
ag5
(g9
S'\xb8'
p62
tp63
Rp64
asg21
(lp65
g5
(g9
S'\x84'
p66
tp67
Rp68
ag5
(g9
g35
tp69
Rp70
ag5
(g9
S'\xb2'
p71
tp72
Rp73
assS'l'
p74
(dp75
g3
(lp76
g5
(g9
S'x'
p77
tp78
Rp79
ag5
(g9
S'R'
p80
tp81
Rp82
ag5
(g9
S'\xa5'
p83
tp84
Rp85
asg21
(lp86
g5
(g9
g38
tp87
Rp88
ag5
(g9
S'O'
p89
tp90
Rp91
ag5
(g9
S'\x9f'
p92
tp93
Rp94
assS'r'
p95
(dp96
g3
(lp97
g5
(g9
S'w'
p98
tp99
Rp100
ag5
(g9
S'|'
p101
tp102
Rp103
ag5
(g9
S'^'
p104
tp105
Rp106
asg21
(lp107
g5
(g9
S'n'
p108
tp109
Rp110
ag5
(g9
g77
tp111
Rp112
ag5
(g9
S'Y'
p113
tp114
Rp115
assS'u'
p116
(dp117
g3
(lp118
g5
(g9
g45
tp119
Rp120
ag5
(g9
g66
tp121
Rp122
ag5
(g9
S't'
p123
tp124
Rp125
asg21
(lp126
g5
(g9
S'\xb4'
p127
tp128
Rp129
ag5
(g9
S'\x80'
p130
tp131
Rp132
ag5
(g9
S'p'
p133
tp134
Rp135
ass.