(dp0
S'b'
p1
(dp2
S'upper_limit'
p3
(lp4
cnumpy.core.multiarray
scalar
p5
(cnumpy
dtype
p6
(S'u1'
p7
I0
I1
tp8
Rp9
(I3
S'|'
p10
NNNI-1
I-1
I0
tp11
bS'~'
p12
tp13
Rp14
ag5
(g9
S'z'
p15
tp16
Rp17
ag5
(g9
S'a'
p18
tp19
Rp20
asS'lower_limit'
p21
(lp22
g5
(g9
S'o'
p23
tp24
Rp25
ag5
(g9
S'u'
p26
tp27
Rp28
ag5
(g9
S'\\'
p29
tp30
Rp31
assS'd'
p32
(dp33
g3
(lp34
g5
(g9
S'\xda'
p35
tp36
Rp37
ag5
(g9
S'v'
p38
tp39
Rp40
ag5
(g9
S'\xcd'
p41
tp42
Rp43
asg21
(lp44
g5
(g9
S'\x98'
p45
tp46
Rp47
ag5
(g9
S'q'
p48
tp49
Rp50
ag5
(g9
S'\xbb'
p51
tp52
Rp53
assS'f'
p54
(dp55
g3
(lp56
g5
(g9
g26
tp57
Rp58
ag5
(g9
S'U'
p59
tp60
Rp61
ag5
(g9
S'\xa8'
p62
tp63
Rp64
asg21
(lp65
g5
(g9
g18
tp66
Rp67
ag5
(g9
S'O'
p68
tp69
Rp70
ag5
(g9
S'\xa0'
p71
tp72
Rp73
assS'l'
p74
(dp75
g3
(lp76
g5
(g9
S'\xb4'
p77
tp78
Rp79
ag5
(g9
S'\xb0'
p80
tp81
Rp82
ag5
(g9
S'\xcc'
p83
tp84
Rp85
asg21
(lp86
g5
(g9
S'\xa3'
p87
tp88
Rp89
ag5
(g9
g87
tp90
Rp91
ag5
(g9
S'\xc8'
p92
tp93
Rp94
assS'r'
p95
(dp96
g3
(lp97
g5
(g9
S'\x8b'
p98
tp99
Rp100
ag5
(g9
S'\xce'
p101
tp102
Rp103
ag5
(g9
S'\xbc'
p104
tp105
Rp106
asg21
(lp107
g5
(g9
g15
tp108
Rp109
ag5
(g9
S'\xc6'
p110
tp111
Rp112
ag5
(g9
S'\xb3'
p113
tp114
Rp115
assS'u'
p116
(dp117
g3
(lp118
g5
(g9
g62
tp119
Rp120
ag5
(g9
S'\x85'
p121
tp122
Rp123
ag5
(g9
S'w'
p124
tp125
Rp126
asg21
(lp127
g5
(g9
g45
tp128
Rp129
ag5
(g9
S'\x81'
p130
tp131
Rp132
ag5
(g9
S's'
p133
tp134
Rp135
ass.