(dp0
S'b'
p1
(dp2
S'upper_limit'
p3
(lp4
cnumpy.core.multiarray
scalar
p5
(cnumpy
dtype
p6
(S'u1'
p7
I0
I1
tp8
Rp9
(I3
S'|'
p10
NNNI-1
I-1
I0
tp11
bS'\xa1'
p12
tp13
Rp14
ag5
(g9
S'{'
p15
tp16
Rp17
ag5
(g9
S'\\'
p18
tp19
Rp20
asS'lower_limit'
p21
(lp22
g5
(g9
S'\x96'
p23
tp24
Rp25
ag5
(g9
S'x'
p26
tp27
Rp28
ag5
(g9
S'X'
p29
tp30
Rp31
assS'd'
p32
(dp33
g3
(lp34
g5
(g9
S'\xef'
p35
tp36
Rp37
ag5
(g9
S'p'
p38
tp39
Rp40
ag5
(g9
S'\xcb'
p41
tp42
Rp43
asg21
(lp44
g5
(g9
S'\xe8'
p45
tp46
Rp47
ag5
(g9
S'm'
p48
tp49
Rp50
ag5
(g9
S'\xc6'
p51
tp52
Rp53
assS'f'
p54
(dp55
g3
(lp56
g5
(g9
S'\xb1'
p57
tp58
Rp59
ag5
(g9
S'T'
p60
tp61
Rp62
ag5
(g9
S'\x9f'
p63
tp64
Rp65
asg21
(lp66
g5
(g9
S'\xa4'
p67
tp68
Rp69
ag5
(g9
S'N'
p70
tp71
Rp72
ag5
(g9
S'\x99'
p73
tp74
Rp75
assS'l'
p76
(dp77
g3
(lp78
g5
(g9
S'\xbf'
p79
tp80
Rp81
ag5
(g9
g67
tp82
Rp83
ag5
(g9
S'\xce'
p84
tp85
Rp86
asg21
(lp87
g5
(g9
S'\xb2'
p88
tp89
Rp90
ag5
(g9
S'\x98'
p91
tp92
Rp93
ag5
(g9
S'\xcc'
p94
tp95
Rp96
assS'r'
p97
(dp98
g3
(lp99
g5
(g9
S'\x8e'
p100
tp101
Rp102
ag5
(g9
S'\xd0'
p103
tp104
Rp105
ag5
(g9
g23
tp106
Rp107
asg21
(lp108
g5
(g9
S'\x8d'
p109
tp110
Rp111
ag5
(g9
g103
tp112
Rp113
ag5
(g9
S'\x8f'
p114
tp115
Rp116
assS'u'
p117
(dp118
g3
(lp119
g5
(g9
S'\xe0'
p120
tp121
Rp122
ag5
(g9
S'\x81'
p123
tp124
Rp125
ag5
(g9
S'w'
p126
tp127
Rp128
asg21
(lp129
g5
(g9
S'\xd7'
p130
tp131
Rp132
ag5
(g9
S'\x7f'
p133
tp134
Rp135
ag5
(g9
S'u'
p136
tp137
Rp138
ass.