(dp0
S'b'
p1
(dp2
S'upper_limit'
p3
(lp4
cnumpy.core.multiarray
scalar
p5
(cnumpy
dtype
p6
(S'u1'
p7
I0
I1
tp8
Rp9
(I3
S'|'
p10
NNNI-1
I-1
I0
tp11
bS'\xa9'
p12
tp13
Rp14
ag5
(g9
S'\xb0'
p15
tp16
Rp17
ag5
(g9
S'\xca'
p18
tp19
Rp20
asS'lower_limit'
p21
(lp22
g5
(g9
S'\xa6'
p23
tp24
Rp25
ag5
(g9
S'\xad'
p26
tp27
Rp28
ag5
(g9
S'\xc9'
p29
tp30
Rp31
assS'd'
p32
(dp33
g3
(lp34
g5
(g9
S'\xd3'
p35
tp36
Rp37
ag5
(g9
S'p'
p38
tp39
Rp40
ag5
(g9
g29
tp41
Rp42
asg21
(lp43
g5
(g9
S'\xcc'
p44
tp45
Rp46
ag5
(g9
S'm'
p47
tp48
Rp49
ag5
(g9
S'\xc3'
p50
tp51
Rp52
assS'f'
p53
(dp54
g3
(lp55
g5
(g9
S'\x92'
p56
tp57
Rp58
ag5
(g9
g44
tp59
Rp60
ag5
(g9
S'\xa7'
p61
tp62
Rp63
asg21
(lp64
g5
(g9
S'\x8e'
p65
tp66
Rp67
ag5
(g9
S'\xc8'
p68
tp69
Rp70
ag5
(g9
S'\x9f'
p71
tp72
Rp73
assS'l'
p74
(dp75
g3
(lp76
g5
(g9
S'\xab'
p77
tp78
Rp79
ag5
(g9
S'H'
p80
tp81
Rp82
ag5
(g9
g23
tp83
Rp84
asg21
(lp85
g5
(g9
S'\xa3'
p86
tp87
Rp88
ag5
(g9
S'E'
p89
tp90
Rp91
ag5
(g9
g71
tp92
Rp93
assS'r'
p94
(dp95
g3
(lp96
g5
(g9
S'\x9e'
p97
tp98
Rp99
ag5
(g9
S'w'
p100
tp101
Rp102
ag5
(g9
S']'
p103
tp104
Rp105
asg21
(lp106
g5
(g9
S'\x97'
p107
tp108
Rp109
ag5
(g9
S't'
p110
tp111
Rp112
ag5
(g9
S'Y'
p113
tp114
Rp115
assS'u'
p116
(dp117
g3
(lp118
g5
(g9
S'\xcb'
p119
tp120
Rp121
ag5
(g9
S'\x85'
p122
tp123
Rp124
ag5
(g9
S'v'
p125
tp126
Rp127
asg21
(lp128
g5
(g9
S'\xc4'
p129
tp130
Rp131
ag5
(g9
S'\x82'
p132
tp133
Rp134
ag5
(g9
S'r'
p135
tp136
Rp137
ass.