(dp0
S'b'
p1
(dp2
S'upper_limit'
p3
(lp4
cnumpy.core.multiarray
scalar
p5
(cnumpy
dtype
p6
(S'u1'
p7
I0
I1
tp8
Rp9
(I3
S'|'
p10
NNNI-1
I-1
I0
tp11
bS'\xa2'
p12
tp13
Rp14
ag5
(g9
S'\xad'
p15
tp16
Rp17
ag5
(g9
S'\xc7'
p18
tp19
Rp20
asS'lower_limit'
p21
(lp22
g5
(g9
S'\x9a'
p23
tp24
Rp25
ag5
(g9
S'\xaa'
p26
tp27
Rp28
ag5
(g9
S'\xc4'
p29
tp30
Rp31
assS'd'
p32
(dp33
g3
(lp34
g5
(g9
S'\xc1'
p35
tp36
Rp37
ag5
(g9
S'p'
p38
tp39
Rp40
ag5
(g9
S'\xc5'
p41
tp42
Rp43
asg21
(lp44
g5
(g9
S'\xb5'
p45
tp46
Rp47
ag5
(g9
S'm'
p48
tp49
Rp50
ag5
(g9
S'\xbb'
p51
tp52
Rp53
assS'f'
p54
(dp55
g3
(lp56
g5
(g9
S'\x8c'
p57
tp58
Rp59
ag5
(g9
S'\xce'
p60
tp61
Rp62
ag5
(g9
S'\xac'
p63
tp64
Rp65
asg21
(lp66
g5
(g9
S'\x83'
p67
tp68
Rp69
ag5
(g9
S'\xca'
p70
tp71
Rp72
ag5
(g9
S'\xa3'
p73
tp74
Rp75
assS'l'
p76
(dp77
g3
(lp78
g5
(g9
S'\x8d'
p79
tp80
Rp81
ag5
(g9
S'L'
p82
tp83
Rp84
ag5
(g9
S'\xa7'
p85
tp86
Rp87
asg21
(lp88
g5
(g9
S'\x86'
p89
tp90
Rp91
ag5
(g9
S'J'
p92
tp93
Rp94
ag5
(g9
S'\xa1'
p95
tp96
Rp97
assS'r'
p98
(dp99
g3
(lp100
g5
(g9
S'w'
p101
tp102
Rp103
ag5
(g9
S'|'
p104
tp105
Rp106
ag5
(g9
S'`'
p107
tp108
Rp109
asg21
(lp110
g5
(g9
S'k'
p111
tp112
Rp113
ag5
(g9
g101
tp114
Rp115
ag5
(g9
S'['
p116
tp117
Rp118
assS'u'
p119
(dp120
g3
(lp121
g5
(g9
g63
tp122
Rp123
ag5
(g9
S'\x84'
p124
tp125
Rp126
ag5
(g9
S's'
p127
tp128
Rp129
asg21
(lp130
g5
(g9
g73
tp131
Rp132
ag5
(g9
S'\x81'
p133
tp134
Rp135
ag5
(g9
g38
tp136
Rp137
ass.