(dp0
S'b'
p1
(dp2
S'upper_limit'
p3
(lp4
cnumpy.core.multiarray
scalar
p5
(cnumpy
dtype
p6
(S'u1'
p7
I0
I1
tp8
Rp9
(I3
S'|'
p10
NNNI-1
I-1
I0
tp11
bS'\xa2'
p12
tp13
Rp14
ag5
(g9
S'\xad'
p15
tp16
Rp17
ag5
(g9
S'\xc7'
p18
tp19
Rp20
asS'lower_limit'
p21
(lp22
g5
(g9
S'\x9b'
p23
tp24
Rp25
ag5
(g9
S'\xaa'
p26
tp27
Rp28
ag5
(g9
S'\xc5'
p29
tp30
Rp31
assS'd'
p32
(dp33
g3
(lp34
g5
(g9
S'\xbf'
p35
tp36
Rp37
ag5
(g9
S'p'
p38
tp39
Rp40
ag5
(g9
g29
tp41
Rp42
asg21
(lp43
g5
(g9
S'\xb6'
p44
tp45
Rp46
ag5
(g9
S'm'
p47
tp48
Rp49
ag5
(g9
g35
tp50
Rp51
assS'f'
p52
(dp53
g3
(lp54
g5
(g9
S'\x8b'
p55
tp56
Rp57
ag5
(g9
S'\xce'
p58
tp59
Rp60
ag5
(g9
S'\xac'
p61
tp62
Rp63
asg21
(lp64
g5
(g9
S'\x84'
p65
tp66
Rp67
ag5
(g9
S'\xcb'
p68
tp69
Rp70
ag5
(g9
S'\xa3'
p71
tp72
Rp73
assS'l'
p74
(dp75
g3
(lp76
g5
(g9
S'\x8d'
p77
tp78
Rp79
ag5
(g9
S'L'
p80
tp81
Rp82
ag5
(g9
S'\xa7'
p83
tp84
Rp85
asg21
(lp86
g5
(g9
S'\x86'
p87
tp88
Rp89
ag5
(g9
S'J'
p90
tp91
Rp92
ag5
(g9
S'\xa1'
p93
tp94
Rp95
assS'r'
p96
(dp97
g3
(lp98
g5
(g9
S'w'
p99
tp100
Rp101
ag5
(g9
S'|'
p102
tp103
Rp104
ag5
(g9
S'`'
p105
tp106
Rp107
asg21
(lp108
g5
(g9
S'k'
p109
tp110
Rp111
ag5
(g9
g99
tp112
Rp113
ag5
(g9
S'['
p114
tp115
Rp116
assS'u'
p117
(dp118
g3
(lp119
g5
(g9
S'\xab'
p120
tp121
Rp122
ag5
(g9
g65
tp123
Rp124
ag5
(g9
S's'
p125
tp126
Rp127
asg21
(lp128
g5
(g9
g71
tp129
Rp130
ag5
(g9
S'\x81'
p131
tp132
Rp133
ag5
(g9
g38
tp134
Rp135
ass.