(dp0
S'b'
p1
(dp2
S'upper_limit'
p3
(lp4
cnumpy.core.multiarray
scalar
p5
(cnumpy
dtype
p6
(S'u1'
p7
I0
I1
tp8
Rp9
(I3
S'|'
p10
NNNI-1
I-1
I0
tp11
bS'F'
p12
tp13
Rp14
ag5
(g9
S'\x82'
p15
tp16
Rp17
ag5
(g9
S'k'
p18
tp19
Rp20
asS'lower_limit'
p21
(lp22
g5
(g9
S'9'
p23
tp24
Rp25
ag5
(g9
S'~'
p26
tp27
Rp28
ag5
(g9
S'f'
p29
tp30
Rp31
assS'd'
p32
(dp33
g3
(lp34
g5
(g9
S'\x8f'
p35
tp36
Rp37
ag5
(g9
S'w'
p38
tp39
Rp40
ag5
(g9
S'\xb0'
p41
tp42
Rp43
asg21
(lp44
g5
(g9
g26
tp45
Rp46
ag5
(g9
S't'
p47
tp48
Rp49
ag5
(g9
S'\xaa'
p50
tp51
Rp52
assS'f'
p53
(dp54
g3
(lp55
g5
(g9
g29
tp56
Rp57
ag5
(g9
S'c'
p58
tp59
Rp60
ag5
(g9
S'\x95'
p61
tp62
Rp63
asg21
(lp64
g5
(g9
S'W'
p65
tp66
Rp67
ag5
(g9
S'^'
p68
tp69
Rp70
ag5
(g9
g35
tp71
Rp72
assS'l'
p73
(dp74
g3
(lp75
g5
(g9
S'}'
p76
tp77
Rp78
ag5
(g9
S'\xad'
p79
tp80
Rp81
ag5
(g9
S'\xb9'
p82
tp83
Rp84
asg21
(lp85
g5
(g9
S'o'
p86
tp87
Rp88
ag5
(g9
S'\xa8'
p89
tp90
Rp91
ag5
(g9
S'\xb1'
p92
tp93
Rp94
assS'r'
p95
(dp96
g3
(lp97
g5
(g9
g58
tp98
Rp99
ag5
(g9
S'\xbb'
p100
tp101
Rp102
ag5
(g9
S'\x9e'
p103
tp104
Rp105
asg21
(lp106
g5
(g9
S'Y'
p107
tp108
Rp109
ag5
(g9
S'\xb5'
p110
tp111
Rp112
ag5
(g9
S'\x98'
p113
tp114
Rp115
assS'u'
p116
(dp117
g3
(lp118
g5
(g9
g76
tp119
Rp120
ag5
(g9
S'\x81'
p121
tp122
Rp123
ag5
(g9
S'\x7f'
p124
tp125
Rp126
asg21
(lp127
g5
(g9
S'l'
p128
tp129
Rp130
ag5
(g9
g76
tp131
Rp132
ag5
(g9
S'z'
p133
tp134
Rp135
ass.