(dp0
S'b'
p1
(dp2
S'upper_limit'
p3
(lp4
cnumpy.core.multiarray
scalar
p5
(cnumpy
dtype
p6
(S'u1'
p7
I0
I1
tp8
Rp9
(I3
S'|'
p10
NNNI-1
I-1
I0
tp11
bS'\x93'
p12
tp13
Rp14
ag5
(g9
S'\xaf'
p15
tp16
Rp17
ag5
(g9
S'\xc2'
p18
tp19
Rp20
asS'lower_limit'
p21
(lp22
g5
(g9
S'\x8b'
p23
tp24
Rp25
ag5
(g9
S'\xab'
p26
tp27
Rp28
ag5
(g9
S'\xbf'
p29
tp30
Rp31
assS'd'
p32
(dp33
g3
(lp34
g5
(g9
S'\xbe'
p35
tp36
Rp37
ag5
(g9
S's'
p38
tp39
Rp40
ag5
(g9
S'\xc6'
p41
tp42
Rp43
asg21
(lp44
g5
(g9
S'\xb7'
p45
tp46
Rp47
ag5
(g9
S'o'
p48
tp49
Rp50
ag5
(g9
S'\xc1'
p51
tp52
Rp53
assS'f'
p54
(dp55
g3
(lp56
g5
(g9
S'q'
p57
tp58
Rp59
ag5
(g9
g18
tp60
Rp61
ag5
(g9
S'\xb4'
p62
tp63
Rp64
asg21
(lp65
g5
(g9
S'l'
p66
tp67
Rp68
ag5
(g9
S'\xc0'
p69
tp70
Rp71
ag5
(g9
g15
tp72
Rp73
assS'l'
p74
(dp75
g3
(lp76
g5
(g9
S'\x87'
p77
tp78
Rp79
ag5
(g9
S'N'
p80
tp81
Rp82
ag5
(g9
S'\xa5'
p83
tp84
Rp85
asg21
(lp86
g5
(g9
S'\x80'
p87
tp88
Rp89
ag5
(g9
S'L'
p90
tp91
Rp92
ag5
(g9
S'\x9f'
p93
tp94
Rp95
assS'r'
p96
(dp97
g3
(lp98
g5
(g9
g38
tp99
Rp100
ag5
(g9
S'{'
p101
tp102
Rp103
ag5
(g9
S'a'
p104
tp105
Rp106
asg21
(lp107
g5
(g9
S'k'
p108
tp109
Rp110
ag5
(g9
S'x'
p111
tp112
Rp113
ag5
(g9
S']'
p114
tp115
Rp116
assS'u'
p117
(dp118
g3
(lp119
g5
(g9
S'\xa4'
p120
tp121
Rp122
ag5
(g9
S'\x88'
p123
tp124
Rp125
ag5
(g9
S'w'
p126
tp127
Rp128
asg21
(lp129
g5
(g9
S'\x9e'
p130
tp131
Rp132
ag5
(g9
S'\x83'
p133
tp134
Rp135
ag5
(g9
g38
tp136
Rp137
ass.