(dp0
S'b'
p1
(dp2
S'upper_limit'
p3
(lp4
cnumpy.core.multiarray
scalar
p5
(cnumpy
dtype
p6
(S'u1'
p7
I0
I1
tp8
Rp9
(I3
S'|'
p10
NNNI-1
I-1
I0
tp11
bS'\x85'
p12
tp13
Rp14
ag5
(g9
S'y'
p15
tp16
Rp17
ag5
(g9
S'a'
p18
tp19
Rp20
asS'lower_limit'
p21
(lp22
g5
(g9
g15
tp23
Rp24
ag5
(g9
S't'
p25
tp26
Rp27
ag5
(g9
S'['
p28
tp29
Rp30
assS'd'
p31
(dp32
g3
(lp33
g5
(g9
S'\xb9'
p34
tp35
Rp36
ag5
(g9
g25
tp37
Rp38
ag5
(g9
S'\xc2'
p39
tp40
Rp41
asg21
(lp42
g5
(g9
S'\xaf'
p43
tp44
Rp45
ag5
(g9
S'o'
p46
tp47
Rp48
ag5
(g9
S'\xbd'
p49
tp50
Rp51
assS'f'
p52
(dp53
g3
(lp54
g5
(g9
S'\x84'
p55
tp56
Rp57
ag5
(g9
S'V'
p58
tp59
Rp60
ag5
(g9
S'\xa4'
p61
tp62
Rp63
asg21
(lp64
g5
(g9
S'q'
p65
tp66
Rp67
ag5
(g9
S'N'
p68
tp69
Rp70
ag5
(g9
S'\x99'
p71
tp72
Rp73
assS'l'
p74
(dp75
g3
(lp76
g5
(g9
S'\x91'
p77
tp78
Rp79
ag5
(g9
S'\xac'
p80
tp81
Rp82
ag5
(g9
S'\xc1'
p83
tp84
Rp85
asg21
(lp86
g5
(g9
S's'
p87
tp88
Rp89
ag5
(g9
S'\x9a'
p90
tp91
Rp92
ag5
(g9
S'\xb4'
p93
tp94
Rp95
assS'r'
p96
(dp97
g3
(lp98
g5
(g9
S'\x8a'
p99
tp100
Rp101
ag5
(g9
S'\xcb'
p102
tp103
Rp104
ag5
(g9
S'\xb6'
p105
tp106
Rp107
asg21
(lp108
g5
(g9
S'\x81'
p109
tp110
Rp111
ag5
(g9
S'\xc7'
p112
tp113
Rp114
ag5
(g9
S'\xad'
p115
tp116
Rp117
assS'u'
p118
(dp119
g3
(lp120
g5
(g9
S'\xb5'
p121
tp122
Rp123
ag5
(g9
S'\x87'
p124
tp125
Rp126
ag5
(g9
S'v'
p127
tp128
Rp129
asg21
(lp130
g5
(g9
S'\xa2'
p131
tp132
Rp133
ag5
(g9
S'\x82'
p134
tp135
Rp136
ag5
(g9
S'r'
p137
tp138
Rp139
ass.