(dp0
S'b'
p1
(dp2
S'upper_limit'
p3
(lp4
cnumpy.core.multiarray
scalar
p5
(cnumpy
dtype
p6
(S'u1'
p7
I0
I1
tp8
Rp9
(I3
S'|'
p10
NNNI-1
I-1
I0
tp11
bS'L'
p12
tp13
Rp14
ag5
(g9
S'\x83'
p15
tp16
Rp17
ag5
(g9
S'j'
p18
tp19
Rp20
asS'lower_limit'
p21
(lp22
g5
(g9
S'A'
p23
tp24
Rp25
ag5
(g9
S'\x80'
p26
tp27
Rp28
ag5
(g9
S'd'
p29
tp30
Rp31
assS'd'
p32
(dp33
g3
(lp34
g5
(g9
S'\x8b'
p35
tp36
Rp37
ag5
(g9
S'w'
p38
tp39
Rp40
ag5
(g9
S'\xaf'
p41
tp42
Rp43
asg21
(lp44
g5
(g9
g38
tp45
Rp46
ag5
(g9
S'r'
p47
tp48
Rp49
ag5
(g9
S'\xa8'
p50
tp51
Rp52
assS'f'
p53
(dp54
g3
(lp55
g5
(g9
S'U'
p56
tp57
Rp58
ag5
(g9
S'k'
p59
tp60
Rp61
ag5
(g9
S'\x8e'
p62
tp63
Rp64
asg21
(lp65
g5
(g9
S'J'
p66
tp67
Rp68
ag5
(g9
S'e'
p69
tp70
Rp71
ag5
(g9
S'\x89'
p72
tp73
Rp74
assS'l'
p75
(dp76
g3
(lp77
g5
(g9
g29
tp78
Rp79
ag5
(g9
S'\xa5'
p80
tp81
Rp82
ag5
(g9
S'\xaa'
p83
tp84
Rp85
asg21
(lp86
g5
(g9
S'Z'
p87
tp88
Rp89
ag5
(g9
S'\xa1'
p90
tp91
Rp92
ag5
(g9
S'\xa3'
p93
tp94
Rp95
assS'r'
p96
(dp97
g3
(lp98
g5
(g9
S']'
p99
tp100
Rp101
ag5
(g9
S'\xb5'
p102
tp103
Rp104
ag5
(g9
S'\x9b'
p105
tp106
Rp107
asg21
(lp108
g5
(g9
S'S'
p109
tp110
Rp111
ag5
(g9
g41
tp112
Rp113
ag5
(g9
S'\x97'
p114
tp115
Rp116
assS'u'
p117
(dp118
g3
(lp119
g5
(g9
S'u'
p120
tp121
Rp122
ag5
(g9
S'\x82'
p123
tp124
Rp125
ag5
(g9
S'~'
p126
tp127
Rp128
asg21
(lp129
g5
(g9
g69
tp130
Rp131
ag5
(g9
S'\x7f'
p132
tp133
Rp134
ag5
(g9
S'x'
p135
tp136
Rp137
ass.