(dp0
S'b'
p1
(dp2
S'upper_limit'
p3
(lp4
cnumpy.core.multiarray
scalar
p5
(cnumpy
dtype
p6
(S'u1'
p7
I0
I1
tp8
Rp9
(I3
S'|'
p10
NNNI-1
I-1
I0
tp11
bS'\xa8'
p12
tp13
Rp14
ag5
(g9
S'\xb2'
p15
tp16
Rp17
ag5
(g9
S'\xc9'
p18
tp19
Rp20
asS'lower_limit'
p21
(lp22
g5
(g9
S'\xa0'
p23
tp24
Rp25
ag5
(g9
S'\xad'
p26
tp27
Rp28
ag5
(g9
S'\xc7'
p29
tp30
Rp31
assS'd'
p32
(dp33
g3
(lp34
g5
(g9
S'\xc6'
p35
tp36
Rp37
ag5
(g9
S'r'
p38
tp39
Rp40
ag5
(g9
g35
tp41
Rp42
asg21
(lp43
g5
(g9
S'\xbd'
p44
tp45
Rp46
ag5
(g9
S'n'
p47
tp48
Rp49
ag5
(g9
S'\xbf'
p50
tp51
Rp52
assS'f'
p53
(dp54
g3
(lp55
g5
(g9
S'\x93'
p56
tp57
Rp58
ag5
(g9
g18
tp59
Rp60
ag5
(g9
S'\xae'
p61
tp62
Rp63
asg21
(lp64
g5
(g9
S'\x90'
p65
tp66
Rp67
ag5
(g9
g35
tp68
Rp69
ag5
(g9
S'\xa5'
p70
tp71
Rp72
assS'l'
p73
(dp74
g3
(lp75
g5
(g9
S'\xa2'
p76
tp77
Rp78
ag5
(g9
S'K'
p79
tp80
Rp81
ag5
(g9
S'\xa4'
p82
tp83
Rp84
asg21
(lp85
g5
(g9
S'\x9a'
p86
tp87
Rp88
ag5
(g9
S'H'
p89
tp90
Rp91
ag5
(g9
S'\x9e'
p92
tp93
Rp94
assS'r'
p95
(dp96
g3
(lp97
g5
(g9
g86
tp98
Rp99
ag5
(g9
S'x'
p100
tp101
Rp102
ag5
(g9
S'a'
p103
tp104
Rp105
asg21
(lp106
g5
(g9
S'\x8e'
p107
tp108
Rp109
ag5
(g9
S't'
p110
tp111
Rp112
ag5
(g9
S']'
p113
tp114
Rp115
assS'u'
p116
(dp117
g3
(lp118
g5
(g9
S'\xc3'
p119
tp120
Rp121
ag5
(g9
S'\x85'
p122
tp123
Rp124
ag5
(g9
g100
tp125
Rp126
asg21
(lp127
g5
(g9
S'\xbc'
p128
tp129
Rp130
ag5
(g9
S'\x81'
p131
tp132
Rp133
ag5
(g9
g110
tp134
Rp135
ass.