(dp0
S'b'
p1
(dp2
S'upper_limit'
p3
(lp4
cnumpy.core.multiarray
scalar
p5
(cnumpy
dtype
p6
(S'u1'
p7
I0
I1
tp8
Rp9
(I3
S'|'
p10
NNNI-1
I-1
I0
tp11
bS'a'
p12
tp13
Rp14
ag5
(g9
S'\x83'
p15
tp16
Rp17
ag5
(g9
g12
tp18
Rp19
asS'lower_limit'
p20
(lp21
g5
(g9
S'G'
p22
tp23
Rp24
ag5
(g9
S'~'
p25
tp26
Rp27
ag5
(g9
S'['
p28
tp29
Rp30
assS'd'
p31
(dp32
g3
(lp33
g5
(g9
S'\xa6'
p34
tp35
Rp36
ag5
(g9
S't'
p37
tp38
Rp39
ag5
(g9
S'\xc2'
p40
tp41
Rp42
asg20
(lp43
g5
(g9
S'\x89'
p44
tp45
Rp46
ag5
(g9
S'n'
p47
tp48
Rp49
ag5
(g9
S'\xb9'
p50
tp51
Rp52
assS'f'
p53
(dp54
g3
(lp55
g5
(g9
S'}'
p56
tp57
Rp58
ag5
(g9
S'S'
p59
tp60
Rp61
ag5
(g9
S'\xab'
p62
tp63
Rp64
asg20
(lp65
g5
(g9
S'h'
p66
tp67
Rp68
ag5
(g9
S'M'
p69
tp70
Rp71
ag5
(g9
S'\xa5'
p72
tp73
Rp74
assS'l'
p75
(dp76
g3
(lp77
g5
(g9
S'\x8c'
p78
tp79
Rp80
ag5
(g9
S'\xad'
p81
tp82
Rp83
ag5
(g9
S'\xc0'
p84
tp85
Rp86
asg20
(lp87
g5
(g9
S'u'
p88
tp89
Rp90
ag5
(g9
S'\xa9'
p91
tp92
Rp93
ag5
(g9
S'\xb8'
p94
tp95
Rp96
assS'r'
p97
(dp98
g3
(lp99
g5
(g9
S'j'
p100
tp101
Rp102
ag5
(g9
S'\xbe'
p103
tp104
Rp105
ag5
(g9
S'\xb1'
p106
tp107
Rp108
asg20
(lp109
g5
(g9
S'X'
p110
tp111
Rp112
ag5
(g9
S'\xb5'
p113
tp114
Rp115
ag5
(g9
g62
tp116
Rp117
assS'u'
p118
(dp119
g3
(lp120
g5
(g9
S'\x99'
p121
tp122
Rp123
ag5
(g9
S'\x84'
p124
tp125
Rp126
ag5
(g9
S'w'
p127
tp128
Rp129
asg20
(lp130
g5
(g9
g25
tp131
Rp132
ag5
(g9
S'\x80'
p133
tp134
Rp135
ag5
(g9
S'r'
p136
tp137
Rp138
ass.