(dp0
S'b'
p1
(dp2
S'upper_limit'
p3
(lp4
cnumpy.core.multiarray
scalar
p5
(cnumpy
dtype
p6
(S'u1'
p7
I0
I1
tp8
Rp9
(I3
S'|'
p10
NNNI-1
I-1
I0
tp11
bS'\x98'
p12
tp13
Rp14
ag5
(g9
S'z'
p15
tp16
Rp17
ag5
(g9
S']'
p18
tp19
Rp20
asS'lower_limit'
p21
(lp22
g5
(g9
S'\x8f'
p23
tp24
Rp25
ag5
(g9
S'v'
p26
tp27
Rp28
ag5
(g9
S'Z'
p29
tp30
Rp31
assS'd'
p32
(dp33
g3
(lp34
g5
(g9
S'\xe9'
p35
tp36
Rp37
ag5
(g9
S'r'
p38
tp39
Rp40
ag5
(g9
S'\xca'
p41
tp42
Rp43
asg21
(lp44
g5
(g9
S'\xe2'
p45
tp46
Rp47
ag5
(g9
S'o'
p48
tp49
Rp50
ag5
(g9
S'\xc4'
p51
tp52
Rp53
assS'f'
p54
(dp55
g3
(lp56
g5
(g9
S'\xa4'
p57
tp58
Rp59
ag5
(g9
S'P'
p60
tp61
Rp62
ag5
(g9
S'\x9f'
p63
tp64
Rp65
asg21
(lp66
g5
(g9
S'\x9e'
p67
tp68
Rp69
ag5
(g9
S'L'
p70
tp71
Rp72
ag5
(g9
S'\x9b'
p73
tp74
Rp75
assS'l'
p76
(dp77
g3
(lp78
g5
(g9
S'\xac'
p79
tp80
Rp81
ag5
(g9
S'\xad'
p82
tp83
Rp84
ag5
(g9
g41
tp85
Rp86
asg21
(lp87
g5
(g9
S'\xa9'
p88
tp89
Rp90
ag5
(g9
S'\xaa'
p91
tp92
Rp93
ag5
(g9
g41
tp94
Rp95
assS'r'
p96
(dp97
g3
(lp98
g5
(g9
S'\x8c'
p99
tp100
Rp101
ag5
(g9
S'\xcf'
p102
tp103
Rp104
ag5
(g9
S'\xa8'
p105
tp106
Rp107
asg21
(lp108
g5
(g9
S'\x8b'
p109
tp110
Rp111
ag5
(g9
S'\xce'
p112
tp113
Rp114
ag5
(g9
S'\xa2'
p115
tp116
Rp117
assS'u'
p118
(dp119
g3
(lp120
g5
(g9
S'\xcd'
p121
tp122
Rp123
ag5
(g9
S'\x7f'
p124
tp125
Rp126
ag5
(g9
g124
tp127
Rp128
asg21
(lp129
g5
(g9
S'\xc6'
p130
tp131
Rp132
ag5
(g9
S'}'
p133
tp134
Rp135
ag5
(g9
S'|'
p136
tp137
Rp138
ass.