(dp0
S'b'
p1
(dp2
S'upper_limit'
p3
(lp4
cnumpy.core.multiarray
scalar
p5
(cnumpy
dtype
p6
(S'u1'
p7
I0
I1
tp8
Rp9
(I3
S'|'
p10
NNNI-1
I-1
I0
tp11
bS'\x80'
p12
tp13
Rp14
ag5
(g9
S'y'
p15
tp16
Rp17
ag5
(g9
S'a'
p18
tp19
Rp20
asS'lower_limit'
p21
(lp22
g5
(g9
S'u'
p23
tp24
Rp25
ag5
(g9
g23
tp26
Rp27
ag5
(g9
S'\\'
p28
tp29
Rp30
assS'd'
p31
(dp32
g3
(lp33
g5
(g9
S'\xe3'
p34
tp35
Rp36
ag5
(g9
S't'
p37
tp38
Rp39
ag5
(g9
S'\xd2'
p40
tp41
Rp42
asg21
(lp43
g5
(g9
S'\xda'
p44
tp45
Rp46
ag5
(g9
S'p'
p47
tp48
Rp49
ag5
(g9
S'\xcb'
p50
tp51
Rp52
assS'f'
p53
(dp54
g3
(lp55
g5
(g9
S'{'
p56
tp57
Rp58
ag5
(g9
S'Q'
p59
tp60
Rp61
ag5
(g9
S'\xa7'
p62
tp63
Rp64
asg21
(lp65
g5
(g9
S'r'
p66
tp67
Rp68
ag5
(g9
S'N'
p69
tp70
Rp71
ag5
(g9
S'\x9f'
p72
tp73
Rp74
assS'l'
p75
(dp76
g3
(lp77
g5
(g9
S'\xb8'
p78
tp79
Rp80
ag5
(g9
S'\xa5'
p81
tp82
Rp83
ag5
(g9
S'\xcd'
p84
tp85
Rp86
asg21
(lp87
g5
(g9
S'\xb1'
p88
tp89
Rp90
ag5
(g9
g72
tp91
Rp92
ag5
(g9
g50
tp93
Rp94
assS'r'
p95
(dp96
g3
(lp97
g5
(g9
S'\x8b'
p98
tp99
Rp100
ag5
(g9
S'\xce'
p101
tp102
Rp103
ag5
(g9
S'\xba'
p104
tp105
Rp106
asg21
(lp107
g5
(g9
S'\x85'
p108
tp109
Rp110
ag5
(g9
g50
tp111
Rp112
ag5
(g9
S'\xb4'
p113
tp114
Rp115
assS'u'
p116
(dp117
g3
(lp118
g5
(g9
S'\xb0'
p119
tp120
Rp121
ag5
(g9
S'\x86'
p122
tp123
Rp124
ag5
(g9
S'x'
p125
tp126
Rp127
asg21
(lp128
g5
(g9
S'\xa4'
p129
tp130
Rp131
ag5
(g9
S'\x82'
p132
tp133
Rp134
ag5
(g9
g37
tp135
Rp136
ass.