(dp0
S'b'
p1
(dp2
S'upper_limit'
p3
(lp4
cnumpy.core.multiarray
scalar
p5
(cnumpy
dtype
p6
(S'u1'
p7
I0
I1
tp8
Rp9
(I3
S'|'
p10
NNNI-1
I-1
I0
tp11
bS'\x80'
p12
tp13
Rp14
ag5
(g9
S'\xaf'
p15
tp16
Rp17
ag5
(g9
S'\xbc'
p18
tp19
Rp20
asS'lower_limit'
p21
(lp22
g5
(g9
S'w'
p23
tp24
Rp25
ag5
(g9
S'\xa8'
p26
tp27
Rp28
ag5
(g9
S'\xb9'
p29
tp30
Rp31
assS'd'
p32
(dp33
g3
(lp34
g5
(g9
S'\xa7'
p35
tp36
Rp37
ag5
(g9
S'u'
p38
tp39
Rp40
ag5
(g9
S'\xc0'
p41
tp42
Rp43
asg21
(lp44
g5
(g9
S'\x9e'
p45
tp46
Rp47
ag5
(g9
S'p'
p48
tp49
Rp50
ag5
(g9
g18
tp51
Rp52
assS'f'
p53
(dp54
g3
(lp55
g5
(g9
S'\\'
p56
tp57
Rp58
ag5
(g9
g29
tp59
Rp60
ag5
(g9
S'\xad'
p61
tp62
Rp63
asg21
(lp64
g5
(g9
S'V'
p65
tp66
Rp67
ag5
(g9
S'\xb6'
p68
tp69
Rp70
ag5
(g9
S'\xa9'
p71
tp72
Rp73
assS'l'
p74
(dp75
g3
(lp76
g5
(g9
S'l'
p77
tp78
Rp79
ag5
(g9
S'U'
p80
tp81
Rp82
ag5
(g9
S'\xa5'
p83
tp84
Rp85
asg21
(lp86
g5
(g9
S'a'
p87
tp88
Rp89
ag5
(g9
S'S'
p90
tp91
Rp92
ag5
(g9
S'\x9d'
p93
tp94
Rp95
assS'r'
p96
(dp97
g3
(lp98
g5
(g9
S'c'
p99
tp100
Rp101
ag5
(g9
g12
tp102
Rp103
ag5
(g9
S'`'
p104
tp105
Rp106
asg21
(lp107
g5
(g9
S'Z'
p108
tp109
Rp110
ag5
(g9
S'{'
p111
tp112
Rp113
ag5
(g9
g56
tp114
Rp115
assS'u'
p116
(dp117
g3
(lp118
g5
(g9
S'\x87'
p119
tp120
Rp121
ag5
(g9
S'\x88'
p122
tp123
Rp124
ag5
(g9
g38
tp125
Rp126
asg21
(lp127
g5
(g9
S'\x81'
p128
tp129
Rp130
ag5
(g9
S'\x84'
p131
tp132
Rp133
ag5
(g9
g48
tp134
Rp135
ass.