(dp0
S'b'
p1
(dp2
S'upper_limit'
p3
(lp4
cnumpy.core.multiarray
scalar
p5
(cnumpy
dtype
p6
(S'u1'
p7
I0
I1
tp8
Rp9
(I3
S'|'
p10
NNNI-1
I-1
I0
tp11
bS'\x85'
p12
tp13
Rp14
ag5
(g9
S'}'
p15
tp16
Rp17
ag5
(g9
S'd'
p18
tp19
Rp20
asS'lower_limit'
p21
(lp22
g5
(g9
S's'
p23
tp24
Rp25
ag5
(g9
S'x'
p26
tp27
Rp28
ag5
(g9
S'^'
p29
tp30
Rp31
assS'd'
p32
(dp33
g3
(lp34
g5
(g9
S'\xc4'
p35
tp36
Rp37
ag5
(g9
S'r'
p38
tp39
Rp40
ag5
(g9
S'\xbf'
p41
tp42
Rp43
asg21
(lp44
g5
(g9
S'\xbc'
p45
tp46
Rp47
ag5
(g9
S'o'
p48
tp49
Rp50
ag5
(g9
g45
tp51
Rp52
assS'f'
p53
(dp54
g3
(lp55
g5
(g9
S'\x80'
p56
tp57
Rp58
ag5
(g9
S'Z'
p59
tp60
Rp61
ag5
(g9
S'\x99'
p62
tp63
Rp64
asg21
(lp65
g5
(g9
S'z'
p66
tp67
Rp68
ag5
(g9
S'W'
p69
tp70
Rp71
ag5
(g9
S'\x95'
p72
tp73
Rp74
assS'l'
p75
(dp76
g3
(lp77
g5
(g9
S'\xa2'
p78
tp79
Rp80
ag5
(g9
S'\xaf'
p81
tp82
Rp83
ag5
(g9
S'\xc7'
p84
tp85
Rp86
asg21
(lp87
g5
(g9
S'\x9c'
p88
tp89
Rp90
ag5
(g9
S'\xab'
p91
tp92
Rp93
ag5
(g9
S'\xc3'
p94
tp95
Rp96
assS'r'
p97
(dp98
g3
(lp99
g5
(g9
S'\x86'
p100
tp101
Rp102
ag5
(g9
S'\xcc'
p103
tp104
Rp105
ag5
(g9
S'\x9f'
p106
tp107
Rp108
asg21
(lp109
g5
(g9
S'\x81'
p110
tp111
Rp112
ag5
(g9
S'\xc9'
p113
tp114
Rp115
ag5
(g9
S'\x9b'
p116
tp117
Rp118
assS'u'
p119
(dp120
g3
(lp121
g5
(g9
S'\xb1'
p122
tp123
Rp124
ag5
(g9
S'\x82'
p125
tp126
Rp127
ag5
(g9
g26
tp128
Rp129
asg21
(lp130
g5
(g9
g91
tp131
Rp132
ag5
(g9
S'\x7f'
p133
tp134
Rp135
ag5
(g9
S'u'
p136
tp137
Rp138
ass.