(dp0
S'b'
p1
(dp2
S'upper_limit'
p3
(lp4
cnumpy.core.multiarray
scalar
p5
(cnumpy
dtype
p6
(S'u1'
p7
I0
I1
tp8
Rp9
(I3
S'|'
p10
NNNI-1
I-1
I0
tp11
bS'\xa3'
p12
tp13
Rp14
ag5
(g9
S'\xad'
p15
tp16
Rp17
ag5
(g9
S'\xc7'
p18
tp19
Rp20
asS'lower_limit'
p21
(lp22
g5
(g9
S'\x9d'
p23
tp24
Rp25
ag5
(g9
S'\xa6'
p26
tp27
Rp28
ag5
(g9
S'\xc5'
p29
tp30
Rp31
assS'd'
p32
(dp33
g3
(lp34
g5
(g9
S'\xc0'
p35
tp36
Rp37
ag5
(g9
S'p'
p38
tp39
Rp40
ag5
(g9
g18
tp41
Rp42
asg21
(lp43
g5
(g9
S'\xba'
p44
tp45
Rp46
ag5
(g9
S'k'
p47
tp48
Rp49
ag5
(g9
g35
tp50
Rp51
assS'f'
p52
(dp53
g3
(lp54
g5
(g9
S'\x8b'
p55
tp56
Rp57
ag5
(g9
S'\xc9'
p58
tp59
Rp60
ag5
(g9
S'\xb1'
p61
tp62
Rp63
asg21
(lp64
g5
(g9
S'\x84'
p65
tp66
Rp67
ag5
(g9
S'\xc1'
p68
tp69
Rp70
ag5
(g9
g26
tp71
Rp72
assS'l'
p73
(dp74
g3
(lp75
g5
(g9
S'\x8d'
p76
tp77
Rp78
ag5
(g9
S'N'
p79
tp80
Rp81
ag5
(g9
S'\xa8'
p82
tp83
Rp84
asg21
(lp85
g5
(g9
S'\x81'
p86
tp87
Rp88
ag5
(g9
S'K'
p89
tp90
Rp91
ag5
(g9
S'\xa1'
p92
tp93
Rp94
assS'r'
p95
(dp96
g3
(lp97
g5
(g9
S'w'
p98
tp99
Rp100
ag5
(g9
S'z'
p101
tp102
Rp103
ag5
(g9
S'e'
p104
tp105
Rp106
asg21
(lp107
g5
(g9
g38
tp108
Rp109
ag5
(g9
S't'
p110
tp111
Rp112
ag5
(g9
S'a'
p113
tp114
Rp115
assS'u'
p116
(dp117
g3
(lp118
g5
(g9
S'\xa4'
p119
tp120
Rp121
ag5
(g9
g65
tp122
Rp123
ag5
(g9
S'v'
p124
tp125
Rp126
asg21
(lp127
g5
(g9
S'\x9c'
p128
tp129
Rp130
ag5
(g9
S'\x80'
p131
tp132
Rp133
ag5
(g9
S'r'
p134
tp135
Rp136
ass.