(dp0
S'b'
p1
(dp2
S'upper_limit'
p3
(lp4
cnumpy.core.multiarray
scalar
p5
(cnumpy
dtype
p6
(S'u1'
p7
I0
I1
tp8
Rp9
(I3
S'|'
p10
NNNI-1
I-1
I0
tp11
bS'k'
p12
tp13
Rp14
ag5
(g9
S'~'
p15
tp16
Rp17
ag5
(g9
S'a'
p18
tp19
Rp20
asS'lower_limit'
p21
(lp22
g5
(g9
S'['
p23
tp24
Rp25
ag5
(g9
S'y'
p26
tp27
Rp28
ag5
(g9
S'\\'
p29
tp30
Rp31
assS'd'
p32
(dp33
g3
(lp34
g5
(g9
S'\xcb'
p35
tp36
Rp37
ag5
(g9
S'u'
p38
tp39
Rp40
ag5
(g9
S'\xca'
p41
tp42
Rp43
asg21
(lp44
g5
(g9
S'\xb7'
p45
tp46
Rp47
ag5
(g9
S'p'
p48
tp49
Rp50
ag5
(g9
S'\xc3'
p51
tp52
Rp53
assS'f'
p54
(dp55
g3
(lp56
g5
(g9
g48
tp57
Rp58
ag5
(g9
S'U'
p59
tp60
Rp61
ag5
(g9
S'\xa5'
p62
tp63
Rp64
asg21
(lp65
g5
(g9
S'c'
p66
tp67
Rp68
ag5
(g9
S'Q'
p69
tp70
Rp71
ag5
(g9
S'\x9f'
p72
tp73
Rp74
assS'l'
p75
(dp76
g3
(lp77
g5
(g9
S'\xad'
p78
tp79
Rp80
ag5
(g9
S'\xaf'
p81
tp82
Rp83
ag5
(g9
g41
tp84
Rp85
asg21
(lp86
g5
(g9
S'\x9e'
p87
tp88
Rp89
ag5
(g9
S'\xa9'
p90
tp91
Rp92
ag5
(g9
S'\xc6'
p93
tp94
Rp95
assS'r'
p96
(dp97
g3
(lp98
g5
(g9
g15
tp99
Rp100
ag5
(g9
S'\xc7'
p101
tp102
Rp103
ag5
(g9
S'\xb5'
p104
tp105
Rp106
asg21
(lp107
g5
(g9
g48
tp108
Rp109
ag5
(g9
S'\xc1'
p110
tp111
Rp112
ag5
(g9
g81
tp113
Rp114
assS'u'
p115
(dp116
g3
(lp117
g5
(g9
S'\x9b'
p118
tp119
Rp120
ag5
(g9
S'\x85'
p121
tp122
Rp123
ag5
(g9
g26
tp124
Rp125
asg21
(lp126
g5
(g9
S'w'
p127
tp128
Rp129
ag5
(g9
S'\x81'
p130
tp131
Rp132
ag5
(g9
g38
tp133
Rp134
ass.