(dp0
S'b'
p1
(dp2
S'upper_limit'
p3
(lp4
cnumpy.core.multiarray
scalar
p5
(cnumpy
dtype
p6
(S'u1'
p7
I0
I1
tp8
Rp9
(I3
S'|'
p10
NNNI-1
I-1
I0
tp11
bS'u'
p12
tp13
Rp14
ag5
(g9
S'|'
p15
tp16
Rp17
ag5
(g9
S'_'
p18
tp19
Rp20
asS'lower_limit'
p21
(lp22
g5
(g9
S'i'
p23
tp24
Rp25
ag5
(g9
S'x'
p26
tp27
Rp28
ag5
(g9
S'['
p29
tp30
Rp31
assS'd'
p32
(dp33
g3
(lp34
g5
(g9
S'\xbc'
p35
tp36
Rp37
ag5
(g9
S'o'
p38
tp39
Rp40
ag5
(g9
S'\xc7'
p41
tp42
Rp43
asg21
(lp44
g5
(g9
S'\xb1'
p45
tp46
Rp47
ag5
(g9
S'l'
p48
tp49
Rp50
ag5
(g9
S'\xc3'
p51
tp52
Rp53
assS'f'
p54
(dp55
g3
(lp56
g5
(g9
S'\x8d'
p57
tp58
Rp59
ag5
(g9
S'L'
p60
tp61
Rp62
ag5
(g9
S'\xaf'
p63
tp64
Rp65
asg21
(lp66
g5
(g9
S'\x84'
p67
tp68
Rp69
ag5
(g9
S'I'
p70
tp71
Rp72
ag5
(g9
S'\xa6'
p73
tp74
Rp75
assS'l'
p76
(dp77
g3
(lp78
g5
(g9
S'\x9d'
p79
tp80
Rp81
ag5
(g9
S'\xae'
p82
tp83
Rp84
ag5
(g9
S'\xc5'
p85
tp86
Rp87
asg21
(lp88
g5
(g9
S'\x96'
p89
tp90
Rp91
ag5
(g9
S'\xab'
p92
tp93
Rp94
ag5
(g9
g51
tp95
Rp96
assS'r'
p97
(dp98
g3
(lp99
g5
(g9
S'y'
p100
tp101
Rp102
ag5
(g9
S'\xc6'
p103
tp104
Rp105
ag5
(g9
S'\xb6'
p106
tp107
Rp108
asg21
(lp109
g5
(g9
g38
tp110
Rp111
ag5
(g9
S'\xc1'
p112
tp113
Rp114
ag5
(g9
g82
tp115
Rp116
assS'u'
p117
(dp118
g3
(lp119
g5
(g9
S'\xac'
p120
tp121
Rp122
ag5
(g9
S'\x85'
p123
tp124
Rp125
ag5
(g9
g12
tp126
Rp127
asg21
(lp128
g5
(g9
S'\xa5'
p129
tp130
Rp131
ag5
(g9
S'\x82'
p132
tp133
Rp134
ag5
(g9
S'q'
p135
tp136
Rp137
ass.