(dp0
S'b'
p1
(dp2
S'upper_limit'
p3
(lp4
cnumpy.core.multiarray
scalar
p5
(cnumpy
dtype
p6
(S'u1'
p7
I0
I1
tp8
Rp9
(I3
S'|'
p10
NNNI-1
I-1
I0
tp11
bS'\xa6'
p12
tp13
Rp14
ag5
(g9
S'\xb0'
p15
tp16
Rp17
ag5
(g9
S'\xc9'
p18
tp19
Rp20
asS'lower_limit'
p21
(lp22
g5
(g9
S'\x9a'
p23
tp24
Rp25
ag5
(g9
S'\xad'
p26
tp27
Rp28
ag5
(g9
S'\xc5'
p29
tp30
Rp31
assS'd'
p32
(dp33
g3
(lp34
g5
(g9
S'\xdb'
p35
tp36
Rp37
ag5
(g9
S'q'
p38
tp39
Rp40
ag5
(g9
g18
tp41
Rp42
asg21
(lp43
g5
(g9
S'\xcd'
p44
tp45
Rp46
ag5
(g9
S'n'
p47
tp48
Rp49
ag5
(g9
S'\xc3'
p50
tp51
Rp52
assS'f'
p53
(dp54
g3
(lp55
g5
(g9
S'~'
p56
tp57
Rp58
ag5
(g9
g18
tp59
Rp60
ag5
(g9
S'\xb6'
p61
tp62
Rp63
asg21
(lp64
g5
(g9
g38
tp65
Rp66
ag5
(g9
g50
tp67
Rp68
ag5
(g9
g15
tp69
Rp70
assS'l'
p71
(dp72
g3
(lp73
g5
(g9
S'\x9c'
p74
tp75
Rp76
ag5
(g9
S'K'
p77
tp78
Rp79
ag5
(g9
S'\xa5'
p80
tp81
Rp82
asg21
(lp83
g5
(g9
S'\x8e'
p84
tp85
Rp86
ag5
(g9
S'G'
p87
tp88
Rp89
ag5
(g9
S'\xa0'
p90
tp91
Rp92
assS'r'
p93
(dp94
g3
(lp95
g5
(g9
S'\x86'
p96
tp97
Rp98
ag5
(g9
S'z'
p99
tp100
Rp101
ag5
(g9
S'^'
p102
tp103
Rp104
asg21
(lp105
g5
(g9
S'w'
p106
tp107
Rp108
ag5
(g9
S'v'
p109
tp110
Rp111
ag5
(g9
S'Z'
p112
tp113
Rp114
assS'u'
p115
(dp116
g3
(lp117
g5
(g9
S'\xb8'
p118
tp119
Rp120
ag5
(g9
S'\x89'
p121
tp122
Rp123
ag5
(g9
S's'
p124
tp125
Rp126
asg21
(lp127
g5
(g9
S'\xa9'
p128
tp129
Rp130
ag5
(g9
S'\x85'
p131
tp132
Rp133
ag5
(g9
g38
tp134
Rp135
ass.