(dp0
S'b'
p1
(dp2
S'upper_limit'
p3
(lp4
cnumpy.core.multiarray
scalar
p5
(cnumpy
dtype
p6
(S'u1'
p7
I0
I1
tp8
Rp9
(I3
S'|'
p10
NNNI-1
I-1
I0
tp11
bS'y'
p12
tp13
Rp14
ag5
(g9
S'x'
p15
tp16
Rp17
ag5
(g9
S'm'
p18
tp19
Rp20
asS'lower_limit'
p21
(lp22
g5
(g9
S'l'
p23
tp24
Rp25
ag5
(g9
S's'
p26
tp27
Rp28
ag5
(g9
S'e'
p29
tp30
Rp31
assS'd'
p32
(dp33
g3
(lp34
g5
(g9
S'\xd7'
p35
tp36
Rp37
ag5
(g9
S't'
p38
tp39
Rp40
ag5
(g9
S'\xc6'
p41
tp42
Rp43
asg21
(lp44
g5
(g9
S'\xb7'
p45
tp46
Rp47
ag5
(g9
g23
tp48
Rp49
ag5
(g9
g45
tp50
Rp51
assS'f'
p52
(dp53
g3
(lp54
g5
(g9
S'\x8a'
p55
tp56
Rp57
ag5
(g9
S'S'
p58
tp59
Rp60
ag5
(g9
S'\xab'
p61
tp62
Rp63
asg21
(lp64
g5
(g9
S'u'
p65
tp66
Rp67
ag5
(g9
S'M'
p68
tp69
Rp70
ag5
(g9
S'\xa4'
p71
tp72
Rp73
assS'l'
p74
(dp75
g3
(lp76
g5
(g9
S'\xaf'
p77
tp78
Rp79
ag5
(g9
S'\xa7'
p80
tp81
Rp82
ag5
(g9
S'\xca'
p83
tp84
Rp85
asg21
(lp86
g5
(g9
S'\x9e'
p87
tp88
Rp89
ag5
(g9
S'\x9b'
p90
tp91
Rp92
ag5
(g9
S'\xc5'
p93
tp94
Rp95
assS'r'
p96
(dp97
g3
(lp98
g5
(g9
S'\x9c'
p99
tp100
Rp101
ag5
(g9
S'\xc2'
p102
tp103
Rp104
ag5
(g9
S'\xb6'
p105
tp106
Rp107
asg21
(lp108
g5
(g9
S'\x81'
p109
tp110
Rp111
ag5
(g9
S'\xb1'
p112
tp113
Rp114
ag5
(g9
S'\xad'
p115
tp116
Rp117
assS'u'
p118
(dp119
g3
(lp120
g5
(g9
S'\xb4'
p121
tp122
Rp123
ag5
(g9
S'\x84'
p124
tp125
Rp126
ag5
(g9
g12
tp127
Rp128
asg21
(lp129
g5
(g9
S'\xa9'
p130
tp131
Rp132
ag5
(g9
S'\x7f'
p133
tp134
Rp135
ag5
(g9
g38
tp136
Rp137
ass.