(dp0
S'b'
p1
(dp2
S'upper_limit'
p3
(lp4
cnumpy.core.multiarray
scalar
p5
(cnumpy
dtype
p6
(S'u1'
p7
I0
I1
tp8
Rp9
(I3
S'|'
p10
NNNI-1
I-1
I0
tp11
bS'j'
p12
tp13
Rp14
ag5
(g9
S'\xae'
p15
tp16
Rp17
ag5
(g9
S'\xb5'
p18
tp19
Rp20
asS'lower_limit'
p21
(lp22
g5
(g9
S'U'
p23
tp24
Rp25
ag5
(g9
S'\xa9'
p26
tp27
Rp28
ag5
(g9
S'\xad'
p29
tp30
Rp31
assS'd'
p32
(dp33
g3
(lp34
g5
(g9
S'\x8b'
p35
tp36
Rp37
ag5
(g9
S't'
p38
tp39
Rp40
ag5
(g9
S'\xb7'
p41
tp42
Rp43
asg21
(lp44
g5
(g9
g38
tp45
Rp46
ag5
(g9
S'o'
p47
tp48
Rp49
ag5
(g9
S'\xaf'
p50
tp51
Rp52
assS'f'
p53
(dp54
g3
(lp55
g5
(g9
S'e'
p56
tp57
Rp58
ag5
(g9
S'\xbb'
p59
tp60
Rp61
ag5
(g9
g50
tp62
Rp63
asg21
(lp64
g5
(g9
S'R'
p65
tp66
Rp67
ag5
(g9
S'\xb2'
p68
tp69
Rp70
ag5
(g9
S'\xa7'
p71
tp72
Rp73
assS'l'
p74
(dp75
g3
(lp76
g5
(g9
S'M'
p77
tp78
Rp79
ag5
(g9
S'b'
p80
tp81
Rp82
ag5
(g9
S'\x9c'
p83
tp84
Rp85
asg21
(lp86
g5
(g9
S':'
p87
tp88
Rp89
ag5
(g9
S'\\'
p90
tp91
Rp92
ag5
(g9
S'\x98'
p93
tp94
Rp95
assS'r'
p96
(dp97
g3
(lp98
g5
(g9
S'<'
p99
tp100
Rp101
ag5
(g9
S'\x86'
p102
tp103
Rp104
ag5
(g9
S'm'
p105
tp106
Rp107
asg21
(lp108
g5
(g9
S'('
p109
tp110
Rp111
ag5
(g9
S'~'
p112
tp113
Rp114
ag5
(g9
S'`'
p115
tp116
Rp117
assS'u'
p118
(dp119
g3
(lp120
g5
(g9
S'x'
p121
tp122
Rp123
ag5
(g9
S'\x83'
p124
tp125
Rp126
ag5
(g9
S'v'
p127
tp128
Rp129
asg21
(lp130
g5
(g9
g56
tp131
Rp132
ag5
(g9
g112
tp133
Rp134
ag5
(g9
S'p'
p135
tp136
Rp137
ass.