(dp0
S'b'
p1
(dp2
S'upper_limit'
p3
(lp4
cnumpy.core.multiarray
scalar
p5
(cnumpy
dtype
p6
(S'u1'
p7
I0
I1
tp8
Rp9
(I3
S'|'
p10
NNNI-1
I-1
I0
tp11
bS'\xdb'
p12
tp13
Rp14
ag5
(g9
S'k'
p15
tp16
Rp17
ag5
(g9
S'j'
p18
tp19
Rp20
asS'lower_limit'
p21
(lp22
g5
(g9
S'\xcf'
p23
tp24
Rp25
ag5
(g9
S'g'
p26
tp27
Rp28
ag5
(g9
S'c'
p29
tp30
Rp31
assS'd'
p32
(dp33
g3
(lp34
g5
(g9
S'\xf5'
p35
tp36
Rp37
ag5
(g9
S't'
p38
tp39
Rp40
ag5
(g9
S'\xc3'
p41
tp42
Rp43
asg21
(lp44
g5
(g9
S'\xf3'
p45
tp46
Rp47
ag5
(g9
S'r'
p48
tp49
Rp50
ag5
(g9
S'\xbc'
p51
tp52
Rp53
assS'f'
p54
(dp55
g3
(lp56
g5
(g9
S'\xd6'
p57
tp58
Rp59
ag5
(g9
S'H'
p60
tp61
Rp62
ag5
(g9
S'\x9b'
p63
tp64
Rp65
asg21
(lp66
g5
(g9
S'\xd0'
p67
tp68
Rp69
ag5
(g9
S'C'
p70
tp71
Rp72
ag5
(g9
S'\x94'
p73
tp74
Rp75
assS'l'
p76
(dp77
g3
(lp78
g5
(g9
S'\xe6'
p79
tp80
Rp81
ag5
(g9
S'{'
p82
tp83
Rp84
ag5
(g9
S'\xda'
p85
tp86
Rp87
asg21
(lp88
g5
(g9
S'\xe2'
p89
tp90
Rp91
ag5
(g9
S'x'
p92
tp93
Rp94
ag5
(g9
S'\xd8'
p95
tp96
Rp97
assS'r'
p98
(dp99
g3
(lp100
g5
(g9
S'\xc4'
p101
tp102
Rp103
ag5
(g9
S'\xa6'
p104
tp105
Rp106
ag5
(g9
S'\x95'
p107
tp108
Rp109
asg21
(lp110
g5
(g9
S'\xbb'
p111
tp112
Rp113
ag5
(g9
S'\xa0'
p114
tp115
Rp116
ag5
(g9
S'\x90'
p117
tp118
Rp119
assS'u'
p120
(dp121
g3
(lp122
g5
(g9
S'\xfd'
p123
tp124
Rp125
ag5
(g9
S'\x83'
p126
tp127
Rp128
ag5
(g9
S'\x7f'
p129
tp130
Rp131
asg21
(lp132
g5
(g9
S'\xe8'
p133
tp134
Rp135
ag5
(g9
S'\x80'
p136
tp137
Rp138
ag5
(g9
S'w'
p139
tp140
Rp141
ass.