(dp0
S'b'
p1
(dp2
S'upper_limit'
p3
(lp4
cnumpy.core.multiarray
scalar
p5
(cnumpy
dtype
p6
(S'u1'
p7
I0
I1
tp8
Rp9
(I3
S'|'
p10
NNNI-1
I-1
I0
tp11
bS'p'
p12
tp13
Rp14
ag5
(g9
S'}'
p15
tp16
Rp17
ag5
(g9
S'e'
p18
tp19
Rp20
asS'lower_limit'
p21
(lp22
g5
(g9
S']'
p23
tp24
Rp25
ag5
(g9
S'v'
p26
tp27
Rp28
ag5
(g9
S'^'
p29
tp30
Rp31
assS'd'
p32
(dp33
g3
(lp34
g5
(g9
S'\x9f'
p35
tp36
Rp37
ag5
(g9
g26
tp38
Rp39
ag5
(g9
S'\xbe'
p40
tp41
Rp42
asg21
(lp43
g5
(g9
S'\x90'
p44
tp45
Rp46
ag5
(g9
S'r'
p47
tp48
Rp49
ag5
(g9
S'\xb4'
p50
tp51
Rp52
assS'f'
p53
(dp54
g3
(lp55
g5
(g9
g47
tp56
Rp57
ag5
(g9
S'V'
p58
tp59
Rp60
ag5
(g9
S'\xa7'
p61
tp62
Rp63
asg21
(lp64
g5
(g9
S'c'
p65
tp66
Rp67
ag5
(g9
S'Q'
p68
tp69
Rp70
ag5
(g9
S'\x9c'
p71
tp72
Rp73
assS'l'
p74
(dp75
g3
(lp76
g5
(g9
S'w'
p77
tp78
Rp79
ag5
(g9
S'\xab'
p80
tp81
Rp82
ag5
(g9
S'\xb9'
p83
tp84
Rp85
asg21
(lp86
g5
(g9
S'j'
p87
tp88
Rp89
ag5
(g9
g61
tp90
Rp91
ag5
(g9
g50
tp92
Rp93
assS'r'
p94
(dp95
g3
(lp96
g5
(g9
g77
tp97
Rp98
ag5
(g9
S'\xc4'
p99
tp100
Rp101
ag5
(g9
S'\xb5'
p102
tp103
Rp104
asg21
(lp105
g5
(g9
S'd'
p106
tp107
Rp108
ag5
(g9
S'\xba'
p109
tp110
Rp111
ag5
(g9
S'\xac'
p112
tp113
Rp114
assS'u'
p115
(dp116
g3
(lp117
g5
(g9
S'\x96'
p118
tp119
Rp120
ag5
(g9
S'\x89'
p121
tp122
Rp123
ag5
(g9
g77
tp124
Rp125
asg21
(lp126
g5
(g9
S'\x80'
p127
tp128
Rp129
ag5
(g9
S'\x83'
p130
tp131
Rp132
ag5
(g9
S'q'
p133
tp134
Rp135
ass.