(dp0
S'b'
p1
(dp2
S'upper_limit'
p3
(lp4
cnumpy.core.multiarray
scalar
p5
(cnumpy
dtype
p6
(S'u1'
p7
I0
I1
tp8
Rp9
(I3
S'|'
p10
NNNI-1
I-1
I0
tp11
bS'\xb1'
p12
tp13
Rp14
ag5
(g9
S'\xa9'
p15
tp16
Rp17
ag5
(g9
S'\xcb'
p18
tp19
Rp20
asS'lower_limit'
p21
(lp22
g5
(g9
S'\xad'
p23
tp24
Rp25
ag5
(g9
S'\xa5'
p26
tp27
Rp28
ag5
(g9
S'\xca'
p29
tp30
Rp31
assS'd'
p32
(dp33
g3
(lp34
g5
(g9
S'\xd5'
p35
tp36
Rp37
ag5
(g9
S'n'
p38
tp39
Rp40
ag5
(g9
g29
tp41
Rp42
asg21
(lp43
g5
(g9
g18
tp44
Rp45
ag5
(g9
S'k'
p46
tp47
Rp48
ag5
(g9
S'\xc4'
p49
tp50
Rp51
assS'f'
p52
(dp53
g3
(lp54
g5
(g9
S'\x92'
p55
tp56
Rp57
ag5
(g9
S'\xcd'
p58
tp59
Rp60
ag5
(g9
S'\xae'
p61
tp62
Rp63
asg21
(lp64
g5
(g9
S'\x8d'
p65
tp66
Rp67
ag5
(g9
S'\xc7'
p68
tp69
Rp70
ag5
(g9
S'\xa1'
p71
tp72
Rp73
assS'l'
p74
(dp75
g3
(lp76
g5
(g9
S'\xa0'
p77
tp78
Rp79
ag5
(g9
S'I'
p80
tp81
Rp82
ag5
(g9
g15
tp83
Rp84
asg21
(lp85
g5
(g9
S'\x96'
p86
tp87
Rp88
ag5
(g9
S'F'
p89
tp90
Rp91
ag5
(g9
g71
tp92
Rp93
assS'r'
p94
(dp95
g3
(lp96
g5
(g9
S'\x8b'
p97
tp98
Rp99
ag5
(g9
S'w'
p100
tp101
Rp102
ag5
(g9
S'_'
p103
tp104
Rp105
asg21
(lp106
g5
(g9
S'\x81'
p107
tp108
Rp109
ag5
(g9
S't'
p110
tp111
Rp112
ag5
(g9
S'['
p113
tp114
Rp115
assS'u'
p116
(dp117
g3
(lp118
g5
(g9
S'\xbf'
p119
tp120
Rp121
ag5
(g9
S'\x85'
p122
tp123
Rp124
ag5
(g9
S's'
p125
tp126
Rp127
asg21
(lp128
g5
(g9
S'\xb7'
p129
tp130
Rp131
ag5
(g9
S'\x7f'
p132
tp133
Rp134
ag5
(g9
S'o'
p135
tp136
Rp137
ass.