(dp0
S'b'
p1
(dp2
S'upper_limit'
p3
(lp4
cnumpy.core.multiarray
scalar
p5
(cnumpy
dtype
p6
(S'u1'
p7
I0
I1
tp8
Rp9
(I3
S'|'
p10
NNNI-1
I-1
I0
tp11
bS'Z'
p12
tp13
Rp14
ag5
(g9
S'\x80'
p15
tp16
Rp17
ag5
(g9
S'c'
p18
tp19
Rp20
asS'lower_limit'
p21
(lp22
g5
(g9
S'U'
p23
tp24
Rp25
ag5
(g9
S'~'
p26
tp27
Rp28
ag5
(g9
S'`'
p29
tp30
Rp31
assS'd'
p32
(dp33
g3
(lp34
g5
(g9
S'\xae'
p35
tp36
Rp37
ag5
(g9
S't'
p38
tp39
Rp40
ag5
(g9
S'\xba'
p41
tp42
Rp43
asg21
(lp44
g5
(g9
S'\xa7'
p45
tp46
Rp47
ag5
(g9
S'q'
p48
tp49
Rp50
ag5
(g9
S'\xb6'
p51
tp52
Rp53
assS'f'
p54
(dp55
g3
(lp56
g5
(g9
S'x'
p57
tp58
Rp59
ag5
(g9
S'X'
p60
tp61
Rp62
ag5
(g9
S'\x9c'
p63
tp64
Rp65
asg21
(lp66
g5
(g9
g48
tp67
Rp68
ag5
(g9
S'V'
p69
tp70
Rp71
ag5
(g9
S'\x98'
p72
tp73
Rp74
assS'l'
p75
(dp76
g3
(lp77
g5
(g9
S'\x8d'
p78
tp79
Rp80
ag5
(g9
S'\xb2'
p81
tp82
Rp83
ag5
(g9
S'\xc1'
p84
tp85
Rp86
asg21
(lp87
g5
(g9
S'\x87'
p88
tp89
Rp90
ag5
(g9
S'\xaf'
p91
tp92
Rp93
ag5
(g9
S'\xbf'
p94
tp95
Rp96
assS'r'
p97
(dp98
g3
(lp99
g5
(g9
S'n'
p100
tp101
Rp102
ag5
(g9
g84
tp103
Rp104
ag5
(g9
S'\xaa'
p105
tp106
Rp107
asg21
(lp108
g5
(g9
S'i'
p109
tp110
Rp111
ag5
(g9
S'\xbe'
p112
tp113
Rp114
ag5
(g9
S'\xa5'
p115
tp116
Rp117
assS'u'
p118
(dp119
g3
(lp120
g5
(g9
S'\xa1'
p121
tp122
Rp123
ag5
(g9
S'\x81'
p124
tp125
Rp126
ag5
(g9
S'}'
p127
tp128
Rp129
asg21
(lp130
g5
(g9
S'\x9a'
p131
tp132
Rp133
ag5
(g9
g26
tp134
Rp135
ag5
(g9
S'z'
p136
tp137
Rp138
ass.