(dp0
S'b'
p1
(dp2
S'upper_limit'
p3
(lp4
cnumpy.core.multiarray
scalar
p5
(cnumpy
dtype
p6
(S'u1'
p7
I0
I1
tp8
Rp9
(I3
S'|'
p10
NNNI-1
I-1
I0
tp11
bS'\x8c'
p12
tp13
Rp14
ag5
(g9
S'w'
p15
tp16
Rp17
ag5
(g9
S']'
p18
tp19
Rp20
asS'lower_limit'
p21
(lp22
g5
(g9
S'~'
p23
tp24
Rp25
ag5
(g9
S't'
p26
tp27
Rp28
ag5
(g9
S'Y'
p29
tp30
Rp31
assS'd'
p32
(dp33
g3
(lp34
g5
(g9
S'\xcb'
p35
tp36
Rp37
ag5
(g9
S'o'
p38
tp39
Rp40
ag5
(g9
g35
tp41
Rp42
asg21
(lp43
g5
(g9
S'\xc0'
p44
tp45
Rp46
ag5
(g9
S'k'
p47
tp48
Rp49
ag5
(g9
S'\xc6'
p50
tp51
Rp52
assS'f'
p53
(dp54
g3
(lp55
g5
(g9
S'\xa5'
p56
tp57
Rp58
ag5
(g9
S'P'
p59
tp60
Rp61
ag5
(g9
S'\xab'
p62
tp63
Rp64
asg21
(lp65
g5
(g9
S'\x8b'
p66
tp67
Rp68
ag5
(g9
S'D'
p69
tp70
Rp71
ag5
(g9
S'\x9d'
p72
tp73
Rp74
assS'l'
p75
(dp76
g3
(lp77
g5
(g9
S'\xb1'
p78
tp79
Rp80
ag5
(g9
S'\xaa'
p81
tp82
Rp83
ag5
(g9
g35
tp84
Rp85
asg21
(lp86
g5
(g9
S'\x9f'
p87
tp88
Rp89
ag5
(g9
g56
tp90
Rp91
ag5
(g9
g50
tp92
Rp93
assS'r'
p94
(dp95
g3
(lp96
g5
(g9
S'\x90'
p97
tp98
Rp99
ag5
(g9
S'\xcc'
p100
tp101
Rp102
ag5
(g9
S'\xb3'
p103
tp104
Rp105
asg21
(lp106
g5
(g9
g12
tp107
Rp108
ag5
(g9
S'\xca'
p109
tp110
Rp111
ag5
(g9
S'\xa8'
p112
tp113
Rp114
assS'u'
p115
(dp116
g3
(lp117
g5
(g9
S'\xb5'
p118
tp119
Rp120
ag5
(g9
S'\x84'
p121
tp122
Rp123
ag5
(g9
S'v'
p124
tp125
Rp126
asg21
(lp127
g5
(g9
S'\x97'
p128
tp129
Rp130
ag5
(g9
S'\x80'
p131
tp132
Rp133
ag5
(g9
S'r'
p134
tp135
Rp136
ass.