(dp0
S'b'
p1
(dp2
S'upper_limit'
p3
(lp4
cnumpy.core.multiarray
scalar
p5
(cnumpy
dtype
p6
(S'u1'
p7
I0
I1
tp8
Rp9
(I3
S'|'
p10
NNNI-1
I-1
I0
tp11
bS'\xb2'
p12
tp13
Rp14
ag5
(g9
S'\xa9'
p15
tp16
Rp17
ag5
(g9
S'\xcc'
p18
tp19
Rp20
asS'lower_limit'
p21
(lp22
g5
(g9
S'\xad'
p23
tp24
Rp25
ag5
(g9
S'\xa4'
p26
tp27
Rp28
ag5
(g9
S'\xca'
p29
tp30
Rp31
assS'd'
p32
(dp33
g3
(lp34
g5
(g9
S'\xdc'
p35
tp36
Rp37
ag5
(g9
S'o'
p38
tp39
Rp40
ag5
(g9
g29
tp41
Rp42
asg21
(lp43
g5
(g9
S'\xcd'
p44
tp45
Rp46
ag5
(g9
S'k'
p47
tp48
Rp49
ag5
(g9
S'\xc2'
p50
tp51
Rp52
assS'f'
p53
(dp54
g3
(lp55
g5
(g9
S'\x93'
p56
tp57
Rp58
ag5
(g9
S'\xcb'
p59
tp60
Rp61
ag5
(g9
S'\xaa'
p62
tp63
Rp64
asg21
(lp65
g5
(g9
S'\x8f'
p66
tp67
Rp68
ag5
(g9
S'\xc7'
p69
tp70
Rp71
ag5
(g9
S'\x9f'
p72
tp73
Rp74
assS'l'
p75
(dp76
g3
(lp77
g5
(g9
S'\xa3'
p78
tp79
Rp80
ag5
(g9
S'I'
p81
tp82
Rp83
ag5
(g9
S'\xa6'
p84
tp85
Rp86
asg21
(lp87
g5
(g9
S'\x98'
p88
tp89
Rp90
ag5
(g9
S'G'
p91
tp92
Rp93
ag5
(g9
S'\xa1'
p94
tp95
Rp96
assS'r'
p97
(dp98
g3
(lp99
g5
(g9
S'\x8d'
p100
tp101
Rp102
ag5
(g9
S'w'
p103
tp104
Rp105
ag5
(g9
S'_'
p106
tp107
Rp108
asg21
(lp109
g5
(g9
S'\x83'
p110
tp111
Rp112
ag5
(g9
S't'
p113
tp114
Rp115
ag5
(g9
S'['
p116
tp117
Rp118
assS'u'
p119
(dp120
g3
(lp121
g5
(g9
S'\xc4'
p122
tp123
Rp124
ag5
(g9
S'\x85'
p125
tp126
Rp127
ag5
(g9
S'q'
p128
tp129
Rp130
asg21
(lp131
g5
(g9
S'\xb9'
p132
tp133
Rp134
ag5
(g9
S'\x80'
p135
tp136
Rp137
ag5
(g9
S'n'
p138
tp139
Rp140
ass.