(dp0
S'b'
p1
(dp2
S'upper_limit'
p3
(lp4
cnumpy.core.multiarray
scalar
p5
(cnumpy
dtype
p6
(S'u1'
p7
I0
I1
tp8
Rp9
(I3
S'|'
p10
NNNI-1
I-1
I0
tp11
bS'\x8d'
p12
tp13
Rp14
ag5
(g9
S'{'
p15
tp16
Rp17
ag5
(g9
S'_'
p18
tp19
Rp20
asS'lower_limit'
p21
(lp22
g5
(g9
S'\x82'
p23
tp24
Rp25
ag5
(g9
S'w'
p26
tp27
Rp28
ag5
(g9
S'['
p29
tp30
Rp31
assS'd'
p32
(dp33
g3
(lp34
g5
(g9
S'\xef'
p35
tp36
Rp37
ag5
(g9
S'q'
p38
tp39
Rp40
ag5
(g9
S'\xca'
p41
tp42
Rp43
asg21
(lp44
g5
(g9
S'\xe4'
p45
tp46
Rp47
ag5
(g9
S'm'
p48
tp49
Rp50
ag5
(g9
S'\xc5'
p51
tp52
Rp53
assS'f'
p54
(dp55
g3
(lp56
g5
(g9
S'\xb1'
p57
tp58
Rp59
ag5
(g9
S'O'
p60
tp61
Rp62
ag5
(g9
S'\x9f'
p63
tp64
Rp65
asg21
(lp66
g5
(g9
S'\xa1'
p67
tp68
Rp69
ag5
(g9
S'K'
p70
tp71
Rp72
ag5
(g9
S'\x99'
p73
tp74
Rp75
assS'l'
p76
(dp77
g3
(lp78
g5
(g9
S'\xbe'
p79
tp80
Rp81
ag5
(g9
S'\xa5'
p82
tp83
Rp84
ag5
(g9
S'\xcf'
p85
tp86
Rp87
asg21
(lp88
g5
(g9
g57
tp89
Rp90
ag5
(g9
g73
tp91
Rp92
ag5
(g9
S'\xcb'
p93
tp94
Rp95
assS'r'
p96
(dp97
g3
(lp98
g5
(g9
g12
tp99
Rp100
ag5
(g9
S'\xd0'
p101
tp102
Rp103
ag5
(g9
S'\xa0'
p104
tp105
Rp106
asg21
(lp107
g5
(g9
S'\x8c'
p108
tp109
Rp110
ag5
(g9
g85
tp111
Rp112
ag5
(g9
S'\x97'
p113
tp114
Rp115
assS'u'
p116
(dp117
g3
(lp118
g5
(g9
S'\xda'
p119
tp120
Rp121
ag5
(g9
S'\x80'
p122
tp123
Rp124
ag5
(g9
S'}'
p125
tp126
Rp127
asg21
(lp128
g5
(g9
g41
tp129
Rp130
ag5
(g9
g125
tp131
Rp132
ag5
(g9
S'z'
p133
tp134
Rp135
ass.