(dp0
S'b'
p1
(dp2
S'upper_limit'
p3
(lp4
cnumpy.core.multiarray
scalar
p5
(cnumpy
dtype
p6
(S'u1'
p7
I0
I1
tp8
Rp9
(I3
S'|'
p10
NNNI-1
I-1
I0
tp11
bS'\x9e'
p12
tp13
Rp14
ag5
(g9
S'w'
p15
tp16
Rp17
ag5
(g9
S']'
p18
tp19
Rp20
asS'lower_limit'
p21
(lp22
g5
(g9
S'\x93'
p23
tp24
Rp25
ag5
(g9
S's'
p26
tp27
Rp28
ag5
(g9
S'W'
p29
tp30
Rp31
assS'd'
p32
(dp33
g3
(lp34
g5
(g9
S'\xcc'
p35
tp36
Rp37
ag5
(g9
g26
tp38
Rp39
ag5
(g9
S'\xc7'
p40
tp41
Rp42
asg21
(lp43
g5
(g9
S'\xc4'
p44
tp45
Rp46
ag5
(g9
S'o'
p47
tp48
Rp49
ag5
(g9
S'\xc1'
p50
tp51
Rp52
assS'f'
p53
(dp54
g3
(lp55
g5
(g9
S'\xb0'
p56
tp57
Rp58
ag5
(g9
S'F'
p59
tp60
Rp61
ag5
(g9
S'\xa6'
p62
tp63
Rp64
asg21
(lp65
g5
(g9
S'\xa8'
p66
tp67
Rp68
ag5
(g9
S'C'
p69
tp70
Rp71
ag5
(g9
S'\x9d'
p72
tp73
Rp74
assS'l'
p75
(dp76
g3
(lp77
g5
(g9
S'\xb5'
p78
tp79
Rp80
ag5
(g9
g62
tp81
Rp82
ag5
(g9
g35
tp83
Rp84
asg21
(lp85
g5
(g9
g56
tp86
Rp87
ag5
(g9
S'\xa2'
p88
tp89
Rp90
ag5
(g9
S'\xcb'
p91
tp92
Rp93
assS'r'
p94
(dp95
g3
(lp96
g5
(g9
S'\x8d'
p97
tp98
Rp99
ag5
(g9
S'\xce'
p100
tp101
Rp102
ag5
(g9
S'\xaf'
p103
tp104
Rp105
asg21
(lp106
g5
(g9
S'\x8b'
p107
tp108
Rp109
ag5
(g9
S'\xcd'
p110
tp111
Rp112
ag5
(g9
g62
tp113
Rp114
assS'u'
p115
(dp116
g3
(lp117
g5
(g9
g35
tp118
Rp119
ag5
(g9
S'\x86'
p120
tp121
Rp122
ag5
(g9
S'u'
p123
tp124
Rp125
asg21
(lp126
g5
(g9
S'\xc3'
p127
tp128
Rp129
ag5
(g9
S'\x82'
p130
tp131
Rp132
ag5
(g9
S'q'
p133
tp134
Rp135
ass.