(dp0
S'b'
p1
(dp2
S'upper_limit'
p3
(lp4
cnumpy.core.multiarray
scalar
p5
(cnumpy
dtype
p6
(S'u1'
p7
I0
I1
tp8
Rp9
(I3
S'|'
p10
NNNI-1
I-1
I0
tp11
bS'\xaf'
p12
tp13
Rp14
ag5
(g9
S'\xaa'
p15
tp16
Rp17
ag5
(g9
S'\xcb'
p18
tp19
Rp20
asS'lower_limit'
p21
(lp22
g5
(g9
S'\x96'
p23
tp24
Rp25
ag5
(g9
S'\x9c'
p26
tp27
Rp28
ag5
(g9
S'\xbf'
p29
tp30
Rp31
assS'd'
p32
(dp33
g3
(lp34
g5
(g9
S'\xc1'
p35
tp36
Rp37
ag5
(g9
S'o'
p38
tp39
Rp40
ag5
(g9
S'\xc7'
p41
tp42
Rp43
asg21
(lp44
g5
(g9
S'\xb3'
p45
tp46
Rp47
ag5
(g9
S'k'
p48
tp49
Rp50
ag5
(g9
g29
tp51
Rp52
assS'f'
p53
(dp54
g3
(lp55
g5
(g9
S'\x8c'
p56
tp57
Rp58
ag5
(g9
S'\xcd'
p59
tp60
Rp61
ag5
(g9
S'\xb4'
p62
tp63
Rp64
asg21
(lp65
g5
(g9
S'\x7f'
p66
tp67
Rp68
ag5
(g9
S'\xc6'
p69
tp70
Rp71
ag5
(g9
S'\xa8'
p72
tp73
Rp74
assS'l'
p75
(dp76
g3
(lp77
g5
(g9
S'\x91'
p78
tp79
Rp80
ag5
(g9
S'N'
p81
tp82
Rp83
ag5
(g9
S'\xab'
p84
tp85
Rp86
asg21
(lp87
g5
(g9
g66
tp88
Rp89
ag5
(g9
S'J'
p90
tp91
Rp92
ag5
(g9
S'\x9f'
p93
tp94
Rp95
assS'r'
p96
(dp97
g3
(lp98
g5
(g9
g66
tp99
Rp100
ag5
(g9
S'y'
p101
tp102
Rp103
ag5
(g9
S'd'
p104
tp105
Rp106
asg21
(lp107
g5
(g9
S'r'
p108
tp109
Rp110
ag5
(g9
S'u'
p111
tp112
Rp113
ag5
(g9
S']'
p114
tp115
Rp116
assS'u'
p117
(dp118
g3
(lp119
g5
(g9
g62
tp120
Rp121
ag5
(g9
S'\x85'
p122
tp123
Rp124
ag5
(g9
g111
tp125
Rp126
asg21
(lp127
g5
(g9
S'\xa5'
p128
tp129
Rp130
ag5
(g9
S'\x81'
p131
tp132
Rp133
ag5
(g9
S'n'
p134
tp135
Rp136
ass.