(dp0
S'b'
p1
(dp2
S'upper_limit'
p3
(lp4
cnumpy.core.multiarray
scalar
p5
(cnumpy
dtype
p6
(S'u1'
p7
I0
I1
tp8
Rp9
(I3
S'|'
p10
NNNI-1
I-1
I0
tp11
bS'\x96'
p12
tp13
Rp14
ag5
(g9
S'\xa6'
p15
tp16
Rp17
ag5
(g9
S'\xc2'
p18
tp19
Rp20
asS'lower_limit'
p21
(lp22
g5
(g9
S'\x90'
p23
tp24
Rp25
ag5
(g9
S'\xa1'
p26
tp27
Rp28
ag5
(g9
S'\xc0'
p29
tp30
Rp31
assS'd'
p32
(dp33
g3
(lp34
g5
(g9
S'\xb4'
p35
tp36
Rp37
ag5
(g9
S'q'
p38
tp39
Rp40
ag5
(g9
S'\xc3'
p41
tp42
Rp43
asg21
(lp44
g5
(g9
S'\xad'
p45
tp46
Rp47
ag5
(g9
S'n'
p48
tp49
Rp50
ag5
(g9
S'\xbe'
p51
tp52
Rp53
assS'f'
p54
(dp55
g3
(lp56
g5
(g9
S'\x88'
p57
tp58
Rp59
ag5
(g9
S'\xc4'
p60
tp61
Rp62
ag5
(g9
S'\xb1'
p63
tp64
Rp65
asg21
(lp66
g5
(g9
S'\x80'
p67
tp68
Rp69
ag5
(g9
S'\xbb'
p70
tp71
Rp72
ag5
(g9
S'\xa9'
p73
tp74
Rp75
assS'l'
p76
(dp77
g3
(lp78
g5
(g9
S'\x85'
p79
tp80
Rp81
ag5
(g9
S'Q'
p82
tp83
Rp84
ag5
(g9
g73
tp85
Rp86
asg21
(lp87
g5
(g9
S'}'
p88
tp89
Rp90
ag5
(g9
S'N'
p91
tp92
Rp93
ag5
(g9
S'\x9f'
p94
tp95
Rp96
assS'r'
p97
(dp98
g3
(lp99
g5
(g9
S'u'
p100
tp101
Rp102
ag5
(g9
S'x'
p103
tp104
Rp105
ag5
(g9
S'm'
p106
tp107
Rp108
asg21
(lp109
g5
(g9
S'k'
p110
tp111
Rp112
ag5
(g9
S's'
p113
tp114
Rp115
ag5
(g9
S'f'
p116
tp117
Rp118
assS'u'
p119
(dp120
g3
(lp121
g5
(g9
g26
tp122
Rp123
ag5
(g9
S'\x83'
p124
tp125
Rp126
ag5
(g9
S'z'
p127
tp128
Rp129
asg21
(lp130
g5
(g9
S'\x95'
p131
tp132
Rp133
ag5
(g9
S'~'
p134
tp135
Rp136
ag5
(g9
g100
tp137
Rp138
ass.