(dp0
S'b'
p1
(dp2
S'upper_limit'
p3
(lp4
cnumpy.core.multiarray
scalar
p5
(cnumpy
dtype
p6
(S'u1'
p7
I0
I1
tp8
Rp9
(I3
S'|'
p10
NNNI-1
I-1
I0
tp11
bS'\x8c'
p12
tp13
Rp14
ag5
(g9
S'\xa6'
p15
tp16
Rp17
ag5
(g9
S'\xbf'
p18
tp19
Rp20
asS'lower_limit'
p21
(lp22
g5
(g9
S'{'
p23
tp24
Rp25
ag5
(g9
S'\xa0'
p26
tp27
Rp28
ag5
(g9
S'\xb9'
p29
tp30
Rp31
assS'd'
p32
(dp33
g3
(lp34
g5
(g9
S'\xa5'
p35
tp36
Rp37
ag5
(g9
S't'
p38
tp39
Rp40
ag5
(g9
g18
tp41
Rp42
asg21
(lp43
g5
(g9
S'\x94'
p44
tp45
Rp46
ag5
(g9
S'o'
p47
tp48
Rp49
ag5
(g9
S'\xb8'
p50
tp51
Rp52
assS'f'
p53
(dp54
g3
(lp55
g5
(g9
S'~'
p56
tp57
Rp58
ag5
(g9
S'\xc2'
p59
tp60
Rp61
ag5
(g9
S'\xb0'
p62
tp63
Rp64
asg21
(lp65
g5
(g9
g47
tp66
Rp67
ag5
(g9
g50
tp68
Rp69
ag5
(g9
S'\xa8'
p70
tp71
Rp72
assS'l'
p73
(dp74
g3
(lp75
g5
(g9
S'y'
p76
tp77
Rp78
ag5
(g9
S'W'
p79
tp80
Rp81
ag5
(g9
S'\xa9'
p82
tp83
Rp84
asg21
(lp85
g5
(g9
S'k'
p86
tp87
Rp88
ag5
(g9
S'P'
p89
tp90
Rp91
ag5
(g9
S'\xa1'
p92
tp93
Rp94
assS'r'
p95
(dp96
g3
(lp97
g5
(g9
S'd'
p98
tp99
Rp100
ag5
(g9
g76
tp101
Rp102
ag5
(g9
g38
tp103
Rp104
asg21
(lp105
g5
(g9
S'Y'
p106
tp107
Rp108
ag5
(g9
S'u'
p109
tp110
Rp111
ag5
(g9
S'h'
p112
tp113
Rp114
assS'u'
p115
(dp116
g3
(lp117
g5
(g9
g44
tp118
Rp119
ag5
(g9
S'\x82'
p120
tp121
Rp122
ag5
(g9
S'\x7f'
p123
tp124
Rp125
asg21
(lp126
g5
(g9
g120
tp127
Rp128
ag5
(g9
S'}'
p129
tp130
Rp131
ag5
(g9
g76
tp132
Rp133
ass.