(dp0
S'b'
p1
(dp2
S'upper_limit'
p3
(lp4
cnumpy.core.multiarray
scalar
p5
(cnumpy
dtype
p6
(S'u1'
p7
I0
I1
tp8
Rp9
(I3
S'|'
p10
NNNI-1
I-1
I0
tp11
bS'\x8c'
p12
tp13
Rp14
ag5
(g9
S'\xb4'
p15
tp16
Rp17
ag5
(g9
S'\xc0'
p18
tp19
Rp20
asS'lower_limit'
p21
(lp22
g5
(g9
S'\x86'
p23
tp24
Rp25
ag5
(g9
S'\xae'
p26
tp27
Rp28
ag5
(g9
S'\xbe'
p29
tp30
Rp31
assS'd'
p32
(dp33
g3
(lp34
g5
(g9
S'\xa3'
p35
tp36
Rp37
ag5
(g9
S'r'
p38
tp39
Rp40
ag5
(g9
g29
tp41
Rp42
asg21
(lp43
g5
(g9
S'\x9a'
p44
tp45
Rp46
ag5
(g9
S'n'
p47
tp48
Rp49
ag5
(g9
S'\xb8'
p50
tp51
Rp52
assS'f'
p53
(dp54
g3
(lp55
g5
(g9
S'x'
p56
tp57
Rp58
ag5
(g9
S'\xc5'
p59
tp60
Rp61
ag5
(g9
S'\xb6'
p62
tp63
Rp64
asg21
(lp65
g5
(g9
S'q'
p66
tp67
Rp68
ag5
(g9
S'\xc2'
p69
tp70
Rp71
ag5
(g9
g26
tp72
Rp73
assS'l'
p74
(dp75
g3
(lp76
g5
(g9
S'`'
p77
tp78
Rp79
ag5
(g9
S'X'
p80
tp81
Rp82
ag5
(g9
g35
tp83
Rp84
asg21
(lp85
g5
(g9
g80
tp86
Rp87
ag5
(g9
S'U'
p88
tp89
Rp90
ag5
(g9
S'\x9d'
p91
tp92
Rp93
assS'r'
p94
(dp95
g3
(lp96
g5
(g9
S'['
p97
tp98
Rp99
ag5
(g9
S'\x81'
p100
tp101
Rp102
ag5
(g9
g77
tp103
Rp104
asg21
(lp105
g5
(g9
S'S'
p106
tp107
Rp108
ag5
(g9
S'}'
p109
tp110
Rp111
ag5
(g9
g97
tp112
Rp113
assS'u'
p114
(dp115
g3
(lp116
g5
(g9
S'\xa5'
p117
tp118
Rp119
ag5
(g9
S'\x84'
p120
tp121
Rp122
ag5
(g9
S't'
p123
tp124
Rp125
asg21
(lp126
g5
(g9
S'\x9b'
p127
tp128
Rp129
ag5
(g9
S'\x80'
p130
tp131
Rp132
ag5
(g9
S'o'
p133
tp134
Rp135
ass.