(dp0
S'b'
p1
(dp2
S'upper_limit'
p3
(lp4
cnumpy.core.multiarray
scalar
p5
(cnumpy
dtype
p6
(S'u1'
p7
I0
I1
tp8
Rp9
(I3
S'|'
p10
NNNI-1
I-1
I0
tp11
bS'm'
p12
tp13
Rp14
ag5
(g9
S'\x81'
p15
tp16
Rp17
ag5
(g9
S'c'
p18
tp19
Rp20
asS'lower_limit'
p21
(lp22
g5
(g9
S'G'
p23
tp24
Rp25
ag5
(g9
S'y'
p26
tp27
Rp28
ag5
(g9
S'\\'
p29
tp30
Rp31
assS'd'
p32
(dp33
g3
(lp34
g5
(g9
S'\xa2'
p35
tp36
Rp37
ag5
(g9
S's'
p38
tp39
Rp40
ag5
(g9
S'\xbf'
p41
tp42
Rp43
asg21
(lp44
g5
(g9
S'\x85'
p45
tp46
Rp47
ag5
(g9
S'n'
p48
tp49
Rp50
ag5
(g9
S'\xb5'
p51
tp52
Rp53
assS'f'
p54
(dp55
g3
(lp56
g5
(g9
g15
tp57
Rp58
ag5
(g9
S'V'
p59
tp60
Rp61
ag5
(g9
S'\xa9'
p62
tp63
Rp64
asg21
(lp65
g5
(g9
g18
tp66
Rp67
ag5
(g9
S'L'
p68
tp69
Rp70
ag5
(g9
S'\x9f'
p71
tp72
Rp73
assS'l'
p74
(dp75
g3
(lp76
g5
(g9
S'\x8e'
p77
tp78
Rp79
ag5
(g9
S'\xac'
p80
tp81
Rp82
ag5
(g9
S'\xc0'
p83
tp84
Rp85
asg21
(lp86
g5
(g9
S'p'
p87
tp88
Rp89
ag5
(g9
S'\xa4'
p90
tp91
Rp92
ag5
(g9
S'\xb6'
p93
tp94
Rp95
assS'r'
p96
(dp97
g3
(lp98
g5
(g9
S'z'
p99
tp100
Rp101
ag5
(g9
S'\xc3'
p102
tp103
Rp104
ag5
(g9
S'\xb1'
p105
tp106
Rp107
asg21
(lp108
g5
(g9
S'X'
p109
tp110
Rp111
ag5
(g9
S'\xb3'
p112
tp113
Rp114
ag5
(g9
S'\xa3'
p115
tp116
Rp117
assS'u'
p118
(dp119
g3
(lp120
g5
(g9
S'\x92'
p121
tp122
Rp123
ag5
(g9
S'\x86'
p124
tp125
Rp126
ag5
(g9
S'x'
p127
tp128
Rp129
asg21
(lp130
g5
(g9
S'g'
p131
tp132
Rp133
ag5
(g9
S'}'
p134
tp135
Rp136
ag5
(g9
S'o'
p137
tp138
Rp139
ass.