(dp0
S'b'
p1
(dp2
S'upper_limit'
p3
(lp4
cnumpy.core.multiarray
scalar
p5
(cnumpy
dtype
p6
(S'u1'
p7
I0
I1
tp8
Rp9
(I3
S'|'
p10
NNNI-1
I-1
I0
tp11
bS'\x9a'
p12
tp13
Rp14
ag5
(g9
S'\xa5'
p15
tp16
Rp17
ag5
(g9
S'\xc4'
p18
tp19
Rp20
asS'lower_limit'
p21
(lp22
g5
(g9
S'\x94'
p23
tp24
Rp25
ag5
(g9
S'\x9f'
p26
tp27
Rp28
ag5
(g9
S'\xc2'
p29
tp30
Rp31
assS'd'
p32
(dp33
g3
(lp34
g5
(g9
S'\xb1'
p35
tp36
Rp37
ag5
(g9
S'o'
p38
tp39
Rp40
ag5
(g9
g29
tp41
Rp42
asg21
(lp43
g5
(g9
S'\xab'
p44
tp45
Rp46
ag5
(g9
S'l'
p47
tp48
Rp49
ag5
(g9
S'\xbe'
p50
tp51
Rp52
assS'f'
p53
(dp54
g3
(lp55
g5
(g9
S'\x81'
p56
tp57
Rp58
ag5
(g9
S'\xc3'
p59
tp60
Rp61
ag5
(g9
S'\xaf'
p62
tp63
Rp64
asg21
(lp65
g5
(g9
S'z'
p66
tp67
Rp68
ag5
(g9
g50
tp69
Rp70
ag5
(g9
S'\xa7'
p71
tp72
Rp73
assS'l'
p74
(dp75
g3
(lp76
g5
(g9
S'\x86'
p77
tp78
Rp79
ag5
(g9
S'P'
p80
tp81
Rp82
ag5
(g9
g71
tp83
Rp84
asg21
(lp85
g5
(g9
S'\x7f'
p86
tp87
Rp88
ag5
(g9
S'M'
p89
tp90
Rp91
ag5
(g9
S'\xa2'
p92
tp93
Rp94
assS'r'
p95
(dp96
g3
(lp97
g5
(g9
S'x'
p98
tp99
Rp100
ag5
(g9
g98
tp101
Rp102
ag5
(g9
S'h'
p103
tp104
Rp105
asg21
(lp106
g5
(g9
S'p'
p107
tp108
Rp109
ag5
(g9
S't'
p110
tp111
Rp112
ag5
(g9
S'c'
p113
tp114
Rp115
assS'u'
p116
(dp117
g3
(lp118
g5
(g9
S'\xa9'
p119
tp120
Rp121
ag5
(g9
S'\x83'
p122
tp123
Rp124
ag5
(g9
g66
tp125
Rp126
asg21
(lp127
g5
(g9
g92
tp128
Rp129
ag5
(g9
g86
tp130
Rp131
ag5
(g9
S'v'
p132
tp133
Rp134
ass.