(dp0
S'b'
p1
(dp2
S'upper_limit'
p3
(lp4
cnumpy.core.multiarray
scalar
p5
(cnumpy
dtype
p6
(S'u1'
p7
I0
I1
tp8
Rp9
(I3
S'|'
p10
NNNI-1
I-1
I0
tp11
bS'^'
p12
tp13
Rp14
ag5
(g9
S'\x80'
p15
tp16
Rp17
ag5
(g9
S'd'
p18
tp19
Rp20
asS'lower_limit'
p21
(lp22
g5
(g9
S'V'
p23
tp24
Rp25
ag5
(g9
S'z'
p26
tp27
Rp28
ag5
(g9
g12
tp29
Rp30
assS'd'
p31
(dp32
g3
(lp33
g5
(g9
S'\x92'
p34
tp35
Rp36
ag5
(g9
S'v'
p37
tp38
Rp39
ag5
(g9
S'\xba'
p40
tp41
Rp42
asg21
(lp43
g5
(g9
S'\x8d'
p44
tp45
Rp46
ag5
(g9
S's'
p47
tp48
Rp49
ag5
(g9
S'\xb8'
p50
tp51
Rp52
assS'f'
p53
(dp54
g3
(lp55
g5
(g9
S'a'
p56
tp57
Rp58
ag5
(g9
S'X'
p59
tp60
Rp61
ag5
(g9
S'\xa4'
p62
tp63
Rp64
asg21
(lp65
g5
(g9
S'Y'
p66
tp67
Rp68
ag5
(g9
g23
tp69
Rp70
ag5
(g9
S'\x9f'
p71
tp72
Rp73
assS'l'
p74
(dp75
g3
(lp76
g5
(g9
S'r'
p77
tp78
Rp79
ag5
(g9
S'\xac'
p80
tp81
Rp82
ag5
(g9
S'\xb7'
p83
tp84
Rp85
asg21
(lp86
g5
(g9
S'l'
p87
tp88
Rp89
ag5
(g9
S'\xa7'
p90
tp91
Rp92
ag5
(g9
S'\xb5'
p93
tp94
Rp95
assS'r'
p96
(dp97
g3
(lp98
g5
(g9
S'u'
p99
tp100
Rp101
ag5
(g9
S'\xc3'
p102
tp103
Rp104
ag5
(g9
S'\xb4'
p105
tp106
Rp107
asg21
(lp108
g5
(g9
g87
tp109
Rp110
ag5
(g9
S'\xbc'
p111
tp112
Rp113
ag5
(g9
S'\xaa'
p114
tp115
Rp116
assS'u'
p117
(dp118
g3
(lp119
g5
(g9
S'\x90'
p120
tp121
Rp122
ag5
(g9
S'\x89'
p123
tp124
Rp125
ag5
(g9
S'x'
p126
tp127
Rp128
asg21
(lp129
g5
(g9
S'\x85'
p130
tp131
Rp132
ag5
(g9
S'\x83'
p133
tp134
Rp135
ag5
(g9
g47
tp136
Rp137
ass.