(dp0
S'b'
p1
(dp2
S'upper_limit'
p3
(lp4
cnumpy.core.multiarray
scalar
p5
(cnumpy
dtype
p6
(S'u1'
p7
I0
I1
tp8
Rp9
(I3
S'|'
p10
NNNI-1
I-1
I0
tp11
bS'\xbe'
p12
tp13
Rp14
ag5
(g9
S'\x9e'
p15
tp16
Rp17
ag5
(g9
S'\xcf'
p18
tp19
Rp20
asS'lower_limit'
p21
(lp22
g5
(g9
S'\xb8'
p23
tp24
Rp25
ag5
(g9
S'\x99'
p26
tp27
Rp28
ag5
(g9
S'\xcd'
p29
tp30
Rp31
assS'd'
p32
(dp33
g3
(lp34
g5
(g9
S'\xee'
p35
tp36
Rp37
ag5
(g9
S'o'
p38
tp39
Rp40
ag5
(g9
S'\xcb'
p41
tp42
Rp43
asg21
(lp44
g5
(g9
S'\xea'
p45
tp46
Rp47
ag5
(g9
S'l'
p48
tp49
Rp50
ag5
(g9
S'\xc4'
p51
tp52
Rp53
assS'f'
p54
(dp55
g3
(lp56
g5
(g9
S'\xb0'
p57
tp58
Rp59
ag5
(g9
S'\xb5'
p60
tp61
Rp62
ag5
(g9
S'\x98'
p63
tp64
Rp65
asg21
(lp66
g5
(g9
S'\xa9'
p67
tp68
Rp69
ag5
(g9
S'\xae'
p70
tp71
Rp72
ag5
(g9
S'\x92'
p73
tp74
Rp75
assS'l'
p76
(dp77
g3
(lp78
g5
(g9
S'\xc9'
p79
tp80
Rp81
ag5
(g9
S'C'
p82
tp83
Rp84
ag5
(g9
S'\xa5'
p85
tp86
Rp87
asg21
(lp88
g5
(g9
S'\xc2'
p89
tp90
Rp91
ag5
(g9
S'@'
p92
tp93
Rp94
ag5
(g9
g15
tp95
Rp96
assS'r'
p97
(dp98
g3
(lp99
g5
(g9
S'\xba'
p100
tp101
Rp102
ag5
(g9
S'u'
p103
tp104
Rp105
ag5
(g9
S'\\'
p106
tp107
Rp108
asg21
(lp109
g5
(g9
S'\xb3'
p110
tp111
Rp112
ag5
(g9
S'q'
p113
tp114
Rp115
ag5
(g9
S'W'
p116
tp117
Rp118
assS'u'
p119
(dp120
g3
(lp121
g5
(g9
g45
tp122
Rp123
ag5
(g9
S'\x85'
p124
tp125
Rp126
ag5
(g9
g103
tp127
Rp128
asg21
(lp129
g5
(g9
S'\xe5'
p130
tp131
Rp132
ag5
(g9
S'\x82'
p133
tp134
Rp135
ag5
(g9
S'r'
p136
tp137
Rp138
ass.