(dp0
S'b'
p1
(dp2
S'upper_limit'
p3
(lp4
cnumpy.core.multiarray
scalar
p5
(cnumpy
dtype
p6
(S'u1'
p7
I0
I1
tp8
Rp9
(I3
S'|'
p10
NNNI-1
I-1
I0
tp11
bS'\xb2'
p12
tp13
Rp14
ag5
(g9
S'\xaa'
p15
tp16
Rp17
ag5
(g9
S'\xcc'
p18
tp19
Rp20
asS'lower_limit'
p21
(lp22
g5
(g9
S'\xac'
p23
tp24
Rp25
ag5
(g9
S'\xa4'
p26
tp27
Rp28
ag5
(g9
S'\xca'
p29
tp30
Rp31
assS'd'
p32
(dp33
g3
(lp34
g5
(g9
S'\xdc'
p35
tp36
Rp37
ag5
(g9
S'o'
p38
tp39
Rp40
ag5
(g9
S'\xce'
p41
tp42
Rp43
asg21
(lp44
g5
(g9
S'\xcd'
p45
tp46
Rp47
ag5
(g9
S'k'
p48
tp49
Rp50
ag5
(g9
S'\xc2'
p51
tp52
Rp53
assS'f'
p54
(dp55
g3
(lp56
g5
(g9
S'\x93'
p57
tp58
Rp59
ag5
(g9
S'\xcb'
p60
tp61
Rp62
ag5
(g9
g15
tp63
Rp64
asg21
(lp65
g5
(g9
S'\x8f'
p66
tp67
Rp68
ag5
(g9
S'\xc6'
p69
tp70
Rp71
ag5
(g9
S'\x9e'
p72
tp73
Rp74
assS'l'
p75
(dp76
g3
(lp77
g5
(g9
S'\xa3'
p78
tp79
Rp80
ag5
(g9
S'J'
p81
tp82
Rp83
ag5
(g9
S'\xa8'
p84
tp85
Rp86
asg21
(lp87
g5
(g9
S'\x94'
p88
tp89
Rp90
ag5
(g9
S'F'
p91
tp92
Rp93
ag5
(g9
S'\xa0'
p94
tp95
Rp96
assS'r'
p97
(dp98
g3
(lp99
g5
(g9
S'\x8d'
p100
tp101
Rp102
ag5
(g9
S'x'
p103
tp104
Rp105
ag5
(g9
S'a'
p106
tp107
Rp108
asg21
(lp109
g5
(g9
S'\x80'
p110
tp111
Rp112
ag5
(g9
S't'
p113
tp114
Rp115
ag5
(g9
S'Z'
p116
tp117
Rp118
assS'u'
p119
(dp120
g3
(lp121
g5
(g9
S'\xc4'
p122
tp123
Rp124
ag5
(g9
S'\x85'
p125
tp126
Rp127
ag5
(g9
S's'
p128
tp129
Rp130
asg21
(lp131
g5
(g9
S'\xb6'
p132
tp133
Rp134
ag5
(g9
g110
tp135
Rp136
ag5
(g9
S'm'
p137
tp138
Rp139
ass.