(dp0
S'b'
p1
(dp2
S'upper_limit'
p3
(lp4
cnumpy.core.multiarray
scalar
p5
(cnumpy
dtype
p6
(S'u1'
p7
I0
I1
tp8
Rp9
(I3
S'|'
p10
NNNI-1
I-1
I0
tp11
bS'\x9a'
p12
tp13
Rp14
ag5
(g9
S'w'
p15
tp16
Rp17
ag5
(g9
S'^'
p18
tp19
Rp20
asS'lower_limit'
p21
(lp22
g5
(g9
S'\x90'
p23
tp24
Rp25
ag5
(g9
S'r'
p26
tp27
Rp28
ag5
(g9
S'Y'
p29
tp30
Rp31
assS'd'
p32
(dp33
g3
(lp34
g5
(g9
S'\xc9'
p35
tp36
Rp37
ag5
(g9
S's'
p38
tp39
Rp40
ag5
(g9
S'\xc7'
p41
tp42
Rp43
asg21
(lp44
g5
(g9
S'\xbf'
p45
tp46
Rp47
ag5
(g9
S'o'
p48
tp49
Rp50
ag5
(g9
S'\xc1'
p51
tp52
Rp53
assS'f'
p54
(dp55
g3
(lp56
g5
(g9
S'\xaf'
p57
tp58
Rp59
ag5
(g9
S'G'
p60
tp61
Rp62
ag5
(g9
S'\xa5'
p63
tp64
Rp65
asg21
(lp66
g5
(g9
S'\xa2'
p67
tp68
Rp69
ag5
(g9
S'D'
p70
tp71
Rp72
ag5
(g9
S'\x9f'
p73
tp74
Rp75
assS'l'
p76
(dp77
g3
(lp78
g5
(g9
S'\xb5'
p79
tp80
Rp81
ag5
(g9
S'\xa6'
p82
tp83
Rp84
ag5
(g9
S'\xcc'
p85
tp86
Rp87
asg21
(lp88
g5
(g9
S'\xb0'
p89
tp90
Rp91
ag5
(g9
g67
tp92
Rp93
ag5
(g9
S'\xcb'
p94
tp95
Rp96
assS'r'
p97
(dp98
g3
(lp99
g5
(g9
S'\x8d'
p100
tp101
Rp102
ag5
(g9
S'\xce'
p103
tp104
Rp105
ag5
(g9
g89
tp106
Rp107
asg21
(lp108
g5
(g9
S'\x8b'
p109
tp110
Rp111
ag5
(g9
S'\xcd'
p112
tp113
Rp114
ag5
(g9
S'\xa7'
p115
tp116
Rp117
assS'u'
p118
(dp119
g3
(lp120
g5
(g9
g85
tp121
Rp122
ag5
(g9
S'\x86'
p123
tp124
Rp125
ag5
(g9
S'v'
p126
tp127
Rp128
asg21
(lp129
g5
(g9
S'\xc3'
p130
tp131
Rp132
ag5
(g9
S'\x82'
p133
tp134
Rp135
ag5
(g9
g26
tp136
Rp137
ass.