(dp0
S'b'
p1
(dp2
S'upper_limit'
p3
(lp4
cnumpy.core.multiarray
scalar
p5
(cnumpy
dtype
p6
(S'u1'
p7
I0
I1
tp8
Rp9
(I3
S'|'
p10
NNNI-1
I-1
I0
tp11
bS'\x9a'
p12
tp13
Rp14
ag5
(g9
S'\xb2'
p15
tp16
Rp17
ag5
(g9
S'\xc5'
p18
tp19
Rp20
asS'lower_limit'
p21
(lp22
g5
(g9
S'\x90'
p23
tp24
Rp25
ag5
(g9
S'\xae'
p26
tp27
Rp28
ag5
(g9
S'\xc1'
p29
tp30
Rp31
assS'd'
p32
(dp33
g3
(lp34
g5
(g9
S'\xc9'
p35
tp36
Rp37
ag5
(g9
S'r'
p38
tp39
Rp40
ag5
(g9
S'\xc6'
p41
tp42
Rp43
asg21
(lp44
g5
(g9
S'\xa2'
p45
tp46
Rp47
ag5
(g9
S'l'
p48
tp49
Rp50
ag5
(g9
S'\xb7'
p51
tp52
Rp53
assS'f'
p54
(dp55
g3
(lp56
g5
(g9
S'\x8b'
p57
tp58
Rp59
ag5
(g9
S'\xcc'
p60
tp61
Rp62
ag5
(g9
S'\xb6'
p63
tp64
Rp65
asg21
(lp66
g5
(g9
S't'
p67
tp68
Rp69
ag5
(g9
S'\xb9'
p70
tp71
Rp72
ag5
(g9
S'\x9e'
p73
tp74
Rp75
assS'l'
p76
(dp77
g3
(lp78
g5
(g9
g67
tp79
Rp80
ag5
(g9
S'T'
p81
tp82
Rp83
ag5
(g9
g45
tp84
Rp85
asg21
(lp86
g5
(g9
S'i'
p87
tp88
Rp89
ag5
(g9
S'Q'
p90
tp91
Rp92
ag5
(g9
S'\x9d'
p93
tp94
Rp95
assS'r'
p96
(dp97
g3
(lp98
g5
(g9
S'u'
p99
tp100
Rp101
ag5
(g9
S'}'
p102
tp103
Rp104
ag5
(g9
S'^'
p105
tp106
Rp107
asg21
(lp108
g5
(g9
S'k'
p109
tp110
Rp111
ag5
(g9
S'x'
p112
tp113
Rp114
ag5
(g9
S'Z'
p115
tp116
Rp117
assS'u'
p118
(dp119
g3
(lp120
g5
(g9
S'\xba'
p121
tp122
Rp123
ag5
(g9
S'\x84'
p124
tp125
Rp126
ag5
(g9
g99
tp127
Rp128
asg21
(lp129
g5
(g9
g26
tp130
Rp131
ag5
(g9
S'\x80'
p132
tp133
Rp134
ag5
(g9
S'q'
p135
tp136
Rp137
ass.