(dp0
S'b'
p1
(dp2
S'upper_limit'
p3
(lp4
cnumpy.core.multiarray
scalar
p5
(cnumpy
dtype
p6
(S'u1'
p7
I0
I1
tp8
Rp9
(I3
S'|'
p10
NNNI-1
I-1
I0
tp11
bS'\x8b'
p12
tp13
Rp14
ag5
(g9
S'\xb0'
p15
tp16
Rp17
ag5
(g9
S'\xc0'
p18
tp19
Rp20
asS'lower_limit'
p21
(lp22
g5
(g9
S'\x82'
p23
tp24
Rp25
ag5
(g9
S'\xab'
p26
tp27
Rp28
ag5
(g9
S'\xbc'
p29
tp30
Rp31
assS'd'
p32
(dp33
g3
(lp34
g5
(g9
S'\xbb'
p35
tp36
Rp37
ag5
(g9
S'r'
p38
tp39
Rp40
ag5
(g9
S'\xc4'
p41
tp42
Rp43
asg21
(lp44
g5
(g9
S'\xad'
p45
tp46
Rp47
ag5
(g9
S'o'
p48
tp49
Rp50
ag5
(g9
g18
tp51
Rp52
assS'f'
p53
(dp54
g3
(lp55
g5
(g9
S'b'
p56
tp57
Rp58
ag5
(g9
g29
tp59
Rp60
ag5
(g9
g15
tp61
Rp62
asg21
(lp63
g5
(g9
S'V'
p64
tp65
Rp66
ag5
(g9
S'\xb6'
p67
tp68
Rp69
ag5
(g9
g26
tp70
Rp71
assS'l'
p72
(dp73
g3
(lp74
g5
(g9
S'{'
p75
tp76
Rp77
ag5
(g9
S'Q'
p78
tp79
Rp80
ag5
(g9
S'\xa8'
p81
tp82
Rp83
asg21
(lp84
g5
(g9
S'p'
p85
tp86
Rp87
ag5
(g9
S'N'
p88
tp89
Rp90
ag5
(g9
S'\xa2'
p91
tp92
Rp93
assS'r'
p94
(dp95
g3
(lp96
g5
(g9
S'm'
p97
tp98
Rp99
ag5
(g9
S'\x7f'
p100
tp101
Rp102
ag5
(g9
S'_'
p103
tp104
Rp105
asg21
(lp106
g5
(g9
g103
tp107
Rp108
ag5
(g9
S'z'
p109
tp110
Rp111
ag5
(g9
S'['
p112
tp113
Rp114
assS'u'
p115
(dp116
g3
(lp117
g5
(g9
S'\x96'
p118
tp119
Rp120
ag5
(g9
S'\x8a'
p121
tp122
Rp123
ag5
(g9
S'u'
p124
tp125
Rp126
asg21
(lp127
g5
(g9
S'\x89'
p128
tp129
Rp130
ag5
(g9
S'\x84'
p131
tp132
Rp133
ag5
(g9
g85
tp134
Rp135
ass.