(dp0
S'b'
p1
(dp2
S'upper_limit'
p3
(lp4
cnumpy.core.multiarray
scalar
p5
(cnumpy
dtype
p6
(S'u1'
p7
I0
I1
tp8
Rp9
(I3
S'|'
p10
NNNI-1
I-1
I0
tp11
bS'\xad'
p12
tp13
Rp14
ag5
(g9
g12
tp15
Rp16
ag5
(g9
S'\xca'
p17
tp18
Rp19
asS'lower_limit'
p20
(lp21
g5
(g9
S'\xa8'
p22
tp23
Rp24
ag5
(g9
S'\xa9'
p25
tp26
Rp27
ag5
(g9
S'\xc9'
p28
tp29
Rp30
assS'd'
p31
(dp32
g3
(lp33
g5
(g9
S'\xcf'
p34
tp35
Rp36
ag5
(g9
S'o'
p37
tp38
Rp39
ag5
(g9
g28
tp40
Rp41
asg20
(lp42
g5
(g9
S'\xc3'
p43
tp44
Rp45
ag5
(g9
S'l'
p46
tp47
Rp48
ag5
(g9
S'\xc5'
p49
tp50
Rp51
assS'f'
p52
(dp53
g3
(lp54
g5
(g9
S'\x8d'
p55
tp56
Rp57
ag5
(g9
g34
tp58
Rp59
ag5
(g9
g25
tp60
Rp61
asg20
(lp62
g5
(g9
S'\x8b'
p63
tp64
Rp65
ag5
(g9
S'\xce'
p66
tp67
Rp68
ag5
(g9
S'\x9f'
p69
tp70
Rp71
assS'l'
p72
(dp73
g3
(lp74
g5
(g9
S'\x96'
p75
tp76
Rp77
ag5
(g9
S'K'
p78
tp79
Rp80
ag5
(g9
g25
tp81
Rp82
asg20
(lp83
g5
(g9
S'\x8e'
p84
tp85
Rp86
ag5
(g9
S'G'
p87
tp88
Rp89
ag5
(g9
S'\xa0'
p90
tp91
Rp92
assS'r'
p93
(dp94
g3
(lp95
g5
(g9
S'\x85'
p96
tp97
Rp98
ag5
(g9
S'y'
p99
tp100
Rp101
ag5
(g9
S']'
p102
tp103
Rp104
asg20
(lp105
g5
(g9
S'~'
p106
tp107
Rp108
ag5
(g9
S'u'
p109
tp110
Rp111
ag5
(g9
S'Y'
p112
tp113
Rp114
assS'u'
p115
(dp116
g3
(lp117
g5
(g9
S'\xb7'
p118
tp119
Rp120
ag5
(g9
S'\x84'
p121
tp122
Rp123
ag5
(g9
S't'
p124
tp125
Rp126
asg20
(lp127
g5
(g9
g12
tp128
Rp129
ag5
(g9
S'\x80'
p130
tp131
Rp132
ag5
(g9
g37
tp133
Rp134
ass.