(dp0
S'b'
p1
(dp2
S'upper_limit'
p3
(lp4
cnumpy.core.multiarray
scalar
p5
(cnumpy
dtype
p6
(S'u1'
p7
I0
I1
tp8
Rp9
(I3
S'|'
p10
NNNI-1
I-1
I0
tp11
bS'p'
p12
tp13
Rp14
ag5
(g9
S'}'
p15
tp16
Rp17
ag5
(g9
S'b'
p18
tp19
Rp20
asS'lower_limit'
p21
(lp22
g5
(g9
S'h'
p23
tp24
Rp25
ag5
(g9
S'z'
p26
tp27
Rp28
ag5
(g9
S'_'
p29
tp30
Rp31
assS'd'
p32
(dp33
g3
(lp34
g5
(g9
S'\xcd'
p35
tp36
Rp37
ag5
(g9
S't'
p38
tp39
Rp40
ag5
(g9
S'\xc0'
p41
tp42
Rp43
asg21
(lp44
g5
(g9
S'\xc1'
p45
tp46
Rp47
ag5
(g9
g12
tp48
Rp49
ag5
(g9
S'\xbb'
p50
tp51
Rp52
assS'f'
p53
(dp54
g3
(lp55
g5
(g9
S'\x8a'
p56
tp57
Rp58
ag5
(g9
S'W'
p59
tp60
Rp61
ag5
(g9
S'\x9d'
p62
tp63
Rp64
asg21
(lp65
g5
(g9
S'\x7f'
p66
tp67
Rp68
ag5
(g9
S'S'
p69
tp70
Rp71
ag5
(g9
S'\x98'
p72
tp73
Rp74
assS'l'
p75
(dp76
g3
(lp77
g5
(g9
S'\x9f'
p78
tp79
Rp80
ag5
(g9
S'\xb4'
p81
tp82
Rp83
ag5
(g9
S'\xc7'
p84
tp85
Rp86
asg21
(lp87
g5
(g9
S'\x97'
p88
tp89
Rp90
ag5
(g9
S'\xb0'
p91
tp92
Rp93
ag5
(g9
S'\xc4'
p94
tp95
Rp96
assS'r'
p97
(dp98
g3
(lp99
g5
(g9
g66
tp100
Rp101
ag5
(g9
S'\xca'
p102
tp103
Rp104
ag5
(g9
S'\xad'
p105
tp106
Rp107
asg21
(lp108
g5
(g9
S'v'
p109
tp110
Rp111
ag5
(g9
S'\xc5'
p112
tp113
Rp114
ag5
(g9
S'\xa5'
p115
tp116
Rp117
assS'u'
p118
(dp119
g3
(lp120
g5
(g9
S'\xbd'
p121
tp122
Rp123
ag5
(g9
S'\x82'
p124
tp125
Rp126
ag5
(g9
g15
tp127
Rp128
asg21
(lp129
g5
(g9
g81
tp130
Rp131
ag5
(g9
S'~'
p132
tp133
Rp134
ag5
(g9
S'{'
p135
tp136
Rp137
ass.