(dp0
S'b'
p1
(dp2
S'upper_limit'
p3
(lp4
cnumpy.core.multiarray
scalar
p5
(cnumpy
dtype
p6
(S'u1'
p7
I0
I1
tp8
Rp9
(I3
S'|'
p10
NNNI-1
I-1
I0
tp11
bS'\xa4'
p12
tp13
Rp14
ag5
(g9
S'w'
p15
tp16
Rp17
ag5
(g9
S'`'
p18
tp19
Rp20
asS'lower_limit'
p21
(lp22
g5
(g9
S'\x94'
p23
tp24
Rp25
ag5
(g9
S'r'
p26
tp27
Rp28
ag5
(g9
S'Z'
p29
tp30
Rp31
assS'd'
p32
(dp33
g3
(lp34
g5
(g9
S'\xf4'
p35
tp36
Rp37
ag5
(g9
g26
tp38
Rp39
ag5
(g9
S'\xd1'
p40
tp41
Rp42
asg21
(lp43
g5
(g9
S'\xf0'
p44
tp45
Rp46
ag5
(g9
S'n'
p47
tp48
Rp49
ag5
(g9
S'\xc4'
p50
tp51
Rp52
assS'f'
p53
(dp54
g3
(lp55
g5
(g9
S'\xb6'
p56
tp57
Rp58
ag5
(g9
S'D'
p59
tp60
Rp61
ag5
(g9
S'\xad'
p62
tp63
Rp64
asg21
(lp65
g5
(g9
S'\xa8'
p66
tp67
Rp68
ag5
(g9
S'@'
p69
tp70
Rp71
ag5
(g9
S'\xa6'
p72
tp73
Rp74
assS'l'
p75
(dp76
g3
(lp77
g5
(g9
S'\xcc'
p78
tp79
Rp80
ag5
(g9
S'\x95'
p81
tp82
Rp83
ag5
(g9
S'\xd2'
p84
tp85
Rp86
asg21
(lp87
g5
(g9
S'\xc2'
p88
tp89
Rp90
ag5
(g9
S'\x8d'
p91
tp92
Rp93
ag5
(g9
S'\xd0'
p94
tp95
Rp96
assS'r'
p97
(dp98
g3
(lp99
g5
(g9
S'\xa7'
p100
tp101
Rp102
ag5
(g9
S'\xc3'
p103
tp104
Rp105
ag5
(g9
g12
tp106
Rp107
asg21
(lp108
g5
(g9
S'\x97'
p109
tp110
Rp111
ag5
(g9
g56
tp112
Rp113
ag5
(g9
S'\x98'
p114
tp115
Rp116
assS'u'
p117
(dp118
g3
(lp119
g5
(g9
S'\xe9'
p120
tp121
Rp122
ag5
(g9
S'\x84'
p123
tp124
Rp125
ag5
(g9
S't'
p126
tp127
Rp128
asg21
(lp129
g5
(g9
S'\xde'
p130
tp131
Rp132
ag5
(g9
S'\x82'
p133
tp134
Rp135
ag5
(g9
S'q'
p136
tp137
Rp138
ass.