(dp0
S'b'
p1
(dp2
S'upper_limit'
p3
(lp4
cnumpy.core.multiarray
scalar
p5
(cnumpy
dtype
p6
(S'u1'
p7
I0
I1
tp8
Rp9
(I3
S'|'
p10
NNNI-1
I-1
I0
tp11
bS'\xb4'
p12
tp13
Rp14
ag5
(g9
S'\xa7'
p15
tp16
Rp17
ag5
(g9
S'\xcc'
p18
tp19
Rp20
asS'lower_limit'
p21
(lp22
g5
(g9
S'\xaf'
p23
tp24
Rp25
ag5
(g9
S'\xa2'
p26
tp27
Rp28
ag5
(g9
S'\xcb'
p29
tp30
Rp31
assS'd'
p32
(dp33
g3
(lp34
g5
(g9
S'\xd6'
p35
tp36
Rp37
ag5
(g9
S'm'
p38
tp39
Rp40
ag5
(g9
g18
tp41
Rp42
asg21
(lp43
g5
(g9
S'\xc8'
p44
tp45
Rp46
ag5
(g9
S'i'
p47
tp48
Rp49
ag5
(g9
S'\xc3'
p50
tp51
Rp52
assS'f'
p53
(dp54
g3
(lp55
g5
(g9
S'\x91'
p56
tp57
Rp58
ag5
(g9
g18
tp59
Rp60
ag5
(g9
S'\xab'
p61
tp62
Rp63
asg21
(lp64
g5
(g9
S'\x8e'
p65
tp66
Rp67
ag5
(g9
S'\xc9'
p68
tp69
Rp70
ag5
(g9
S'\xa3'
p71
tp72
Rp73
assS'l'
p74
(dp75
g3
(lp76
g5
(g9
S'\xa4'
p77
tp78
Rp79
ag5
(g9
S'I'
p80
tp81
Rp82
ag5
(g9
S'\xad'
p83
tp84
Rp85
asg21
(lp86
g5
(g9
S'\x9b'
p87
tp88
Rp89
ag5
(g9
S'E'
p90
tp91
Rp92
ag5
(g9
g71
tp93
Rp94
assS'r'
p95
(dp96
g3
(lp97
g5
(g9
S'\x8f'
p98
tp99
Rp100
ag5
(g9
S'w'
p101
tp102
Rp103
ag5
(g9
S'a'
p104
tp105
Rp106
asg21
(lp107
g5
(g9
S'\x87'
p108
tp109
Rp110
ag5
(g9
S't'
p111
tp112
Rp113
ag5
(g9
S'Z'
p114
tp115
Rp116
assS'u'
p117
(dp118
g3
(lp119
g5
(g9
g44
tp120
Rp121
ag5
(g9
S'\x85'
p122
tp123
Rp124
ag5
(g9
g111
tp125
Rp126
asg21
(lp127
g5
(g9
S'\xc0'
p128
tp129
Rp130
ag5
(g9
S'\x82'
p131
tp132
Rp133
ag5
(g9
S'p'
p134
tp135
Rp136
ass.