(dp0
S'b'
p1
(dp2
S'upper_limit'
p3
(lp4
cnumpy.core.multiarray
scalar
p5
(cnumpy
dtype
p6
(S'u1'
p7
I0
I1
tp8
Rp9
(I3
S'|'
p10
NNNI-1
I-1
I0
tp11
bS'P'
p12
tp13
Rp14
ag5
(g9
S'\x81'
p15
tp16
Rp17
ag5
(g9
S'i'
p18
tp19
Rp20
asS'lower_limit'
p21
(lp22
g5
(g9
S'?'
p23
tp24
Rp25
ag5
(g9
S'}'
p26
tp27
Rp28
ag5
(g9
S'b'
p29
tp30
Rp31
assS'd'
p32
(dp33
g3
(lp34
g5
(g9
S'\x9e'
p35
tp36
Rp37
ag5
(g9
S'v'
p38
tp39
Rp40
ag5
(g9
S'\xb4'
p41
tp42
Rp43
asg21
(lp44
g5
(g9
S'\x94'
p45
tp46
Rp47
ag5
(g9
S'r'
p48
tp49
Rp50
ag5
(g9
S'\xae'
p51
tp52
Rp53
assS'f'
p54
(dp55
g3
(lp56
g5
(g9
g38
tp57
Rp58
ag5
(g9
S'\\'
p59
tp60
Rp61
ag5
(g9
S'\x9a'
p62
tp63
Rp64
asg21
(lp65
g5
(g9
S'o'
p66
tp67
Rp68
ag5
(g9
S'W'
p69
tp70
Rp71
ag5
(g9
S'\x95'
p72
tp73
Rp74
assS'l'
p75
(dp76
g3
(lp77
g5
(g9
S'\x83'
p78
tp79
Rp80
ag5
(g9
S'\xaf'
p81
tp82
Rp83
ag5
(g9
S'\xbd'
p84
tp85
Rp86
asg21
(lp87
g5
(g9
S'|'
p88
tp89
Rp90
ag5
(g9
S'\xab'
p91
tp92
Rp93
ag5
(g9
S'\xb9'
p94
tp95
Rp96
assS'r'
p97
(dp98
g3
(lp99
g5
(g9
S']'
p100
tp101
Rp102
ag5
(g9
g94
tp103
Rp104
ag5
(g9
S'\xa1'
p105
tp106
Rp107
asg21
(lp108
g5
(g9
g69
tp109
Rp110
ag5
(g9
S'\xb5'
p111
tp112
Rp113
ag5
(g9
S'\x9b'
p114
tp115
Rp116
assS'u'
p117
(dp118
g3
(lp119
g5
(g9
S'\x99'
p120
tp121
Rp122
ag5
(g9
g15
tp123
Rp124
ag5
(g9
g26
tp125
Rp126
asg21
(lp127
g5
(g9
S'\x90'
p128
tp129
Rp130
ag5
(g9
g26
tp131
Rp132
ag5
(g9
S'z'
p133
tp134
Rp135
ass.