(dp0
S'b'
p1
(dp2
S'upper_limit'
p3
(lp4
cnumpy.core.multiarray
scalar
p5
(cnumpy
dtype
p6
(S'u1'
p7
I0
I1
tp8
Rp9
(I3
S'|'
p10
NNNI-1
I-1
I0
tp11
bS'{'
p12
tp13
Rp14
ag5
(g9
S'z'
p15
tp16
Rp17
ag5
(g9
S'b'
p18
tp19
Rp20
asS'lower_limit'
p21
(lp22
g5
(g9
S'n'
p23
tp24
Rp25
ag5
(g9
S'v'
p26
tp27
Rp28
ag5
(g9
S']'
p29
tp30
Rp31
assS'd'
p32
(dp33
g3
(lp34
g5
(g9
S'\xd2'
p35
tp36
Rp37
ag5
(g9
S'x'
p38
tp39
Rp40
ag5
(g9
S'\xcb'
p41
tp42
Rp43
asg21
(lp44
g5
(g9
S'j'
p45
tp46
Rp47
ag5
(g9
S'q'
p48
tp49
Rp50
ag5
(g9
S'\xad'
p51
tp52
Rp53
assS'f'
p54
(dp55
g3
(lp56
g5
(g9
S'r'
p57
tp58
Rp59
ag5
(g9
g29
tp60
Rp61
ag5
(g9
S'\xa6'
p62
tp63
Rp64
asg21
(lp65
g5
(g9
S'J'
p66
tp67
Rp68
ag5
(g9
S'Q'
p69
tp70
Rp71
ag5
(g9
S'\x9b'
p72
tp73
Rp74
assS'l'
p75
(dp76
g3
(lp77
g5
(g9
S'\xb0'
p78
tp79
Rp80
ag5
(g9
g78
tp81
Rp82
ag5
(g9
g41
tp83
Rp84
asg21
(lp85
g5
(g9
S'\x97'
p86
tp87
Rp88
ag5
(g9
g62
tp89
Rp90
ag5
(g9
S'\xc4'
p91
tp92
Rp93
assS'r'
p94
(dp95
g3
(lp96
g5
(g9
S'\x88'
p97
tp98
Rp99
ag5
(g9
S'\xcc'
p100
tp101
Rp102
ag5
(g9
S'\xbc'
p103
tp104
Rp105
asg21
(lp106
g5
(g9
g15
tp107
Rp108
ag5
(g9
S'\xc6'
p109
tp110
Rp111
ag5
(g9
S'\xb3'
p112
tp113
Rp114
assS'u'
p115
(dp116
g3
(lp117
g5
(g9
S'\xa3'
p118
tp119
Rp120
ag5
(g9
S'\x85'
p121
tp122
Rp123
ag5
(g9
S'w'
p124
tp125
Rp126
asg21
(lp127
g5
(g9
S'\x8a'
p128
tp129
Rp130
ag5
(g9
S'\x81'
p131
tp132
Rp133
ag5
(g9
S's'
p134
tp135
Rp136
ass.