(dp0
S'b'
p1
(dp2
S'upper_limit'
p3
(lp4
cnumpy.core.multiarray
scalar
p5
(cnumpy
dtype
p6
(S'u1'
p7
I0
I1
tp8
Rp9
(I3
S'|'
p10
NNNI-1
I-1
I0
tp11
bS'\x82'
p12
tp13
Rp14
ag5
(g9
S'x'
p15
tp16
Rp17
ag5
(g9
S'b'
p18
tp19
Rp20
asS'lower_limit'
p21
(lp22
g5
(g9
S'y'
p23
tp24
Rp25
ag5
(g9
S't'
p26
tp27
Rp28
ag5
(g9
S']'
p29
tp30
Rp31
assS'd'
p32
(dp33
g3
(lp34
g5
(g9
S'\xbb'
p35
tp36
Rp37
ag5
(g9
g26
tp38
Rp39
ag5
(g9
S'\xc3'
p40
tp41
Rp42
asg21
(lp43
g5
(g9
S'\xae'
p44
tp45
Rp46
ag5
(g9
S'p'
p47
tp48
Rp49
ag5
(g9
S'\xbe'
p50
tp51
Rp52
assS'f'
p53
(dp54
g3
(lp55
g5
(g9
S'\x84'
p56
tp57
Rp58
ag5
(g9
S'O'
p59
tp60
Rp61
ag5
(g9
S'\xa6'
p62
tp63
Rp64
asg21
(lp65
g5
(g9
S'|'
p66
tp67
Rp68
ag5
(g9
S'M'
p69
tp70
Rp71
ag5
(g9
S'\xa1'
p72
tp73
Rp74
assS'l'
p75
(dp76
g3
(lp77
g5
(g9
S'\x8d'
p78
tp79
Rp80
ag5
(g9
S'\xac'
p81
tp82
Rp83
ag5
(g9
S'\xc0'
p84
tp85
Rp86
asg21
(lp87
g5
(g9
g56
tp88
Rp89
ag5
(g9
S'\xa8'
p90
tp91
Rp92
ag5
(g9
S'\xbd'
p93
tp94
Rp95
assS'r'
p96
(dp97
g3
(lp98
g5
(g9
S'\x85'
p99
tp100
Rp101
ag5
(g9
S'\xc9'
p102
tp103
Rp104
ag5
(g9
S'\xb6'
p105
tp106
Rp107
asg21
(lp108
g5
(g9
g15
tp109
Rp110
ag5
(g9
S'\xc2'
p111
tp112
Rp113
ag5
(g9
g44
tp114
Rp115
assS'u'
p116
(dp117
g3
(lp118
g5
(g9
g81
tp119
Rp120
ag5
(g9
S'\x87'
p121
tp122
Rp123
ag5
(g9
S'v'
p124
tp125
Rp126
asg21
(lp127
g5
(g9
S'\xa2'
p128
tp129
Rp130
ag5
(g9
g56
tp131
Rp132
ag5
(g9
S'r'
p133
tp134
Rp135
ass.