(dp0
S'b'
p1
(dp2
S'upper_limit'
p3
(lp4
cnumpy.core.multiarray
scalar
p5
(cnumpy
dtype
p6
(S'u1'
p7
I0
I1
tp8
Rp9
(I3
S'|'
p10
NNNI-1
I-1
I0
tp11
bS'r'
p12
tp13
Rp14
ag5
(g9
S'|'
p15
tp16
Rp17
ag5
(g9
S'v'
p18
tp19
Rp20
asS'lower_limit'
p21
(lp22
g5
(g9
S'R'
p23
tp24
Rp25
ag5
(g9
S's'
p26
tp27
Rp28
ag5
(g9
S'h'
p29
tp30
Rp31
assS'd'
p32
(dp33
g3
(lp34
g5
(g9
S'\xaf'
p35
tp36
Rp37
ag5
(g9
g26
tp38
Rp39
ag5
(g9
S'\xc1'
p40
tp41
Rp42
asg21
(lp43
g5
(g9
S'\x93'
p44
tp45
Rp46
ag5
(g9
S'n'
p47
tp48
Rp49
ag5
(g9
S'\xb7'
p50
tp51
Rp52
assS'f'
p53
(dp54
g3
(lp55
g5
(g9
S'\x8c'
p56
tp57
Rp58
ag5
(g9
S'`'
p59
tp60
Rp61
ag5
(g9
S'\xab'
p62
tp63
Rp64
asg21
(lp65
g5
(g9
S'['
p66
tp67
Rp68
ag5
(g9
S'S'
p69
tp70
Rp71
ag5
(g9
S'\xa2'
p72
tp73
Rp74
assS'l'
p75
(dp76
g3
(lp77
g5
(g9
g72
tp78
Rp79
ag5
(g9
S'\xa3'
p80
tp81
Rp82
ag5
(g9
S'\xc3'
p83
tp84
Rp85
asg21
(lp86
g5
(g9
S'{'
p87
tp88
Rp89
ag5
(g9
S'\x92'
p90
tp91
Rp92
ag5
(g9
S'\xb9'
p93
tp94
Rp95
assS'r'
p96
(dp97
g3
(lp98
g5
(g9
S'w'
p99
tp100
Rp101
ag5
(g9
S'\xbf'
p102
tp103
Rp104
ag5
(g9
S'\xb2'
p105
tp106
Rp107
asg21
(lp108
g5
(g9
S'b'
p109
tp110
Rp111
ag5
(g9
S'\xb6'
p112
tp113
Rp114
ag5
(g9
S'\xa9'
p115
tp116
Rp117
assS'u'
p118
(dp119
g3
(lp120
g5
(g9
S'\x9c'
p121
tp122
Rp123
ag5
(g9
S'\x83'
p124
tp125
Rp126
ag5
(g9
S'z'
p127
tp128
Rp129
asg21
(lp130
g5
(g9
S'\x81'
p131
tp132
Rp133
ag5
(g9
S'\x7f'
p134
tp135
Rp136
ag5
(g9
S'u'
p137
tp138
Rp139
ass.