(dp0
S'b'
p1
(dp2
S'upper_limit'
p3
(lp4
cnumpy.core.multiarray
scalar
p5
(cnumpy
dtype
p6
(S'u1'
p7
I0
I1
tp8
Rp9
(I3
S'|'
p10
NNNI-1
I-1
I0
tp11
bS'\xa0'
p12
tp13
Rp14
ag5
(g9
S'y'
p15
tp16
Rp17
ag5
(g9
S']'
p18
tp19
Rp20
asS'lower_limit'
p21
(lp22
g5
(g9
S'\x9a'
p23
tp24
Rp25
ag5
(g9
S'v'
p26
tp27
Rp28
ag5
(g9
S'Z'
p29
tp30
Rp31
assS'd'
p32
(dp33
g3
(lp34
g5
(g9
S'\xf2'
p35
tp36
Rp37
ag5
(g9
S'q'
p38
tp39
Rp40
ag5
(g9
S'\xc8'
p41
tp42
Rp43
asg21
(lp44
g5
(g9
S'\xee'
p45
tp46
Rp47
ag5
(g9
S'o'
p48
tp49
Rp50
ag5
(g9
S'\xc3'
p51
tp52
Rp53
assS'f'
p54
(dp55
g3
(lp56
g5
(g9
S'\xb1'
p57
tp58
Rp59
ag5
(g9
S'N'
p60
tp61
Rp62
ag5
(g9
S'\x9e'
p63
tp64
Rp65
asg21
(lp66
g5
(g9
S'\xac'
p67
tp68
Rp69
ag5
(g9
S'J'
p70
tp71
Rp72
ag5
(g9
g23
tp73
Rp74
assS'l'
p75
(dp76
g3
(lp77
g5
(g9
S'\xb3'
p78
tp79
Rp80
ag5
(g9
S'\xaa'
p81
tp82
Rp83
ag5
(g9
S'\xcc'
p84
tp85
Rp86
asg21
(lp87
g5
(g9
g67
tp88
Rp89
ag5
(g9
S'\xa3'
p90
tp91
Rp92
ag5
(g9
S'\xca'
p93
tp94
Rp95
assS'r'
p96
(dp97
g3
(lp98
g5
(g9
S'\x8d'
p99
tp100
Rp101
ag5
(g9
S'\xd0'
p102
tp103
Rp104
ag5
(g9
S'\x9d'
p105
tp106
Rp107
asg21
(lp108
g5
(g9
g99
tp109
Rp110
ag5
(g9
S'\xcf'
p111
tp112
Rp113
ag5
(g9
S'\x97'
p114
tp115
Rp116
assS'u'
p117
(dp118
g3
(lp119
g5
(g9
S'\xda'
p120
tp121
Rp122
ag5
(g9
S'\x7f'
p123
tp124
Rp125
ag5
(g9
S'~'
p126
tp127
Rp128
asg21
(lp129
g5
(g9
S'\xd4'
p130
tp131
Rp132
ag5
(g9
S'|'
p133
tp134
Rp135
ag5
(g9
S'{'
p136
tp137
Rp138
ass.